ccopy_reg
_reconstructor
p0
(cnetworkx.classes.graph
Graph
p1
c__builtin__
object
p2
Ntp3
Rp4
(dp5
S'adjlist_inner_dict_factory'
p6
c__builtin__
dict
p7
sS'node_dict_factory'
p8
g7
sS'edge_attr_dict_factory'
p9
g7
sS'_node'
p10
(dp11
S'Toast'
p12
(dp13
sS'vitorturra'
p14
(dp15
sS'Ray_of_Light'
p16
(dp17
sS'izzaoki'
p18
(dp19
sS'Leah'
p20
(dp21
sS'TheLogicalLeo'
p22
(dp23
sS'dern'
p24
(dp25
sS'DADDY_BUISCUT'
p26
(dp27
sS'spiders'
p28
(dp29
sS'Augmoff'
p30
(dp31
sS'cosmic20'
p32
(dp33
sS'EXODIA_OBLITERATE'
p34
(dp35
sS'Redfly33'
p36
(dp37
sS'Duncandonutz'
p38
(dp39
sS'Reza'
p40
(dp41
sS'axilirate'
p42
(dp43
sS'NedDoodle'
p44
(dp45
sS'Bunhots'
p46
(dp47
sS'Oreox4'
p48
(dp49
sS'Mitsume'
p50
(dp51
sS'AngelsComics'
p52
(dp53
sS'luvlikestodoodle'
p54
(dp55
sS'EricTheToon'
p56
(dp57
sS'Brozef'
p58
(dp59
sS'JuspehTheCraptoonist'
p60
(dp61
sS'Deena'
p62
(dp63
sS'Tome'
p64
(dp65
sS'PineappleParanoia'
p66
(dp67
sS'tarasynizhny'
p68
(dp69
sS'Thomas'
p70
(dp71
sS'jotaro'
p72
(dp73
sS'MAW'
p74
(dp75
sS'Susanpak'
p76
(dp77
sS'0zx1'
p78
(dp79
sS'Literally a ship'
p80
(dp81
sS'Chris%20william'
p82
(dp83
sS'SugarzTheArtist'
p84
(dp85
sS'Boogi'
p86
(dp87
sS'Gi'
p88
(dp89
sS'Dark_AlyszaXD_Art'
p90
(dp91
sS'Merlin'
p92
(dp93
sS'Smashingcans101%20'
p94
(dp95
sS'art_by_maryam'
p96
(dp97
sS'Jyke The Person'
p98
(dp99
sS'Michaelartkaiser'
p100
(dp101
sS'TownyTownComics'
p102
(dp103
sS'Andy%20Boi'
p104
(dp105
sS'Solly'
p106
(dp107
sS'Eero'
p108
(dp109
sS'Matthew'
p110
(dp111
sS'Magnoliafresh%20'
p112
(dp113
sS'Jinx%20'
p114
(dp115
sS'Tamaradop'
p116
(dp117
sS'Hailey'
p118
(dp119
sS'kun'
p120
(dp121
sS'nefremovskaa'
p122
(dp123
sS'maverick'
p124
(dp125
sS'Hananah.banana'
p126
(dp127
sS'My_artistic_handz'
p128
(dp129
sS'bigboy12'
p130
(dp131
sS'Joeking'
p132
(dp133
sS'CuriousChance'
p134
(dp135
sS'myname'
p136
(dp137
sS'Madi'
p138
(dp139
sS'Otirik'
p140
(dp141
sS'Modow'
p142
(dp143
sS'brooklyncryptid'
p144
(dp145
sS'KidKodi'
p146
(dp147
sS'Fabiana'
p148
(dp149
sS'KatBOOOO'
p150
(dp151
sS'11equalsfish'
p152
(dp153
sS'juano'
p154
(dp155
sS'loutout'
p156
(dp157
sS'twisteddiction'
p158
(dp159
sS'EnvyTheArtDog'
p160
(dp161
sS'Shen'
p162
(dp163
sS'hotmess.exe'
p164
(dp165
sS'ArelaEstudio'
p166
(dp167
sS'Oliver%20bunny%20'
p168
(dp169
sS'Grandpa%20grunk'
p170
(dp171
sS'Murp'
p172
(dp173
sS'Runtime_Musings'
p174
(dp175
sS'JonahWorks'
p176
(dp177
sS'Tsudonymous'
p178
(dp179
sS'Bingo'
p180
(dp181
sS'Jes'
p182
(dp183
sS'RoryTheFiend'
p184
(dp185
sS'Awsomthegod'
p186
(dp187
sS'Gekkoinapeartree'
p188
(dp189
sS'Melody%20Maku'
p190
(dp191
sS'sherlockholmes4eva'
p192
(dp193
sS'JosisCookies'
p194
(dp195
sS'Joerg'
p196
(dp197
sS'yellownoseknows'
p198
(dp199
sS'StrunDuse23'
p200
(dp201
sS'phil.sos'
p202
(dp203
sS'FJP'
p204
(dp205
sS'Jen'
p206
(dp207
sS'SoyBoy'
p208
(dp209
sS'ulmironowwa'
p210
(dp211
sS'DaveGuy'
p212
(dp213
sS'Juno'
p214
(dp215
sS'juanantcastan'
p216
(dp217
sS'GeekyGothicGirl'
p218
(dp219
sS'Staz'
p220
(dp221
sS'cyborgmeat'
p222
(dp223
sS'answearingmachine'
p224
(dp225
sS'aaron.things'
p226
(dp227
sS'Bchan'
p228
(dp229
sS'Snickerdoodle'
p230
(dp231
sS'Rissers'
p232
(dp233
sS'Tatsu'
p234
(dp235
sS'Charity'
p236
(dp237
sS'Beatrice '
p238
(dp239
sS'Superjeffoman'
p240
(dp241
sS'putnik_ruscaf'
p242
(dp243
sS'Dingo'
p244
(dp245
sS'Saltyheck'
p246
(dp247
sS'Loco-L'
p248
(dp249
sS'bennybear'
p250
(dp251
sS'Speedyegg'
p252
(dp253
sS'Beebs'
p254
(dp255
sS'jamdaddy'
p256
(dp257
sS'Crowe'
p258
(dp259
sS'swordferret'
p260
(dp261
sS'j.g.'
p262
(dp263
sS'Noadler'
p264
(dp265
sS'Luna'
p266
(dp267
sS'hehohi'
p268
(dp269
sS'RoseLovesCola'
p270
(dp271
sS'Warpedshinobi'
p272
(dp273
sS'Muzzy87'
p274
(dp275
sS'Jimbo'
p276
(dp277
sS'Saltedice'
p278
(dp279
sS'kuma_no_tsume'
p280
(dp281
sS'genisire'
p282
(dp283
sS'Skribblez'
p284
(dp285
sS'KaiserSoze'
p286
(dp287
sS'Fossette'
p288
(dp289
sS'honeysuccle'
p290
(dp291
sS'Liv'
p292
(dp293
sS'DragonGroli'
p294
(dp295
sS'Shadyk'
p296
(dp297
sS'Reckiez'
p298
(dp299
sS'TripStrips'
p300
(dp301
sS'Amybypormhom'
p302
(dp303
sS'Banana'
p304
(dp305
sS'Liz'
p306
(dp307
sS'hood-issue-mars'
p308
(dp309
sS'Mr.%20SundayComics'
p310
(dp311
sS'Baronlotti'
p312
(dp313
sS'shiki'
p314
(dp315
sS'Psihord'
p316
(dp317
sS'Yournamenospaces'
p318
(dp319
sS'Smashlen'
p320
(dp321
sS'AM%20the%20shithead'
p322
(dp323
sS'Siuz'
p324
(dp325
sS'RelationshipComics'
p326
(dp327
sS'Felicity'
p328
(dp329
sS'RafzAbdullah'
p330
(dp331
sS'Jack'
p332
(dp333
sS'Bishopjess'
p334
(dp335
sS'Tyson'
p336
(dp337
sS'Toon_sketch'
p338
(dp339
sS'gokubesthokage'
p340
(dp341
sS'Kaitlyn%20Johnny'
p342
(dp343
sS'Renee'
p344
(dp345
sS'Balabajkin93'
p346
(dp347
sS'tommynonsense'
p348
(dp349
sS'Pala2'
p350
(dp351
sS'BluQuaker'
p352
(dp353
sS'DaveGuye'
p354
(dp355
sS'Destine%20'
p356
(dp357
sS'NatashkaRapse'
p358
(dp359
sS'tiny%20'
p360
(dp361
sS'Jeanette'
p362
(dp363
sS'Elizefreeman%20'
p364
(dp365
sS'alfredopina'
p366
(dp367
sS'_sketchannel_'
p368
(dp369
sS'amie'
p370
(dp371
sS'Dhai'
p372
(dp373
sS'allison'
p374
(dp375
sS'joeadrianart'
p376
(dp377
sS'compressed_artist%20'
p378
(dp379
sS'Irene'
p380
(dp381
sS'Kitty23232'
p382
(dp383
sS'Izzaro21'
p384
(dp385
sS'markusduda'
p386
(dp387
sS'CarolCampbell'
p388
(dp389
sS'Nonexistent '
p390
(dp391
sS'E.R.%20Conte'
p392
(dp393
sS'Eleonor%20Guanipa'
p394
(dp395
sS'Just-a-LAME-person'
p396
(dp397
sS'HannahWallbank'
p398
(dp399
sS'Assthethicc'
p400
(dp401
sS'Meif'
p402
(dp403
sS'Shamira%20'
p404
(dp405
sS'undeadlamb'
p406
(dp407
sS'crg5fdgi7x5'
p408
(dp409
sS'SoupDuck'
p410
(dp411
sS'Othman'
p412
(dp413
sS'Eggsandbees'
p414
(dp415
sS'YtUboi_tails'
p416
(dp417
sS'Helen'
p418
(dp419
sS'Harsha%20Kumbar%20Shetty'
p420
(dp421
sS'goravyshinsk'
p422
(dp423
sS'Plutomics'
p424
(dp425
sS'54OSiD'
p426
(dp427
sS'izyan'
p428
(dp429
sS'Luvnugget'
p430
(dp431
sS'BlazeMasterBM'
p432
(dp433
sS'JerryaresE'
p434
(dp435
sS'Snailpeeps'
p436
(dp437
sS'Steph'
p438
(dp439
sS's_o_m_e_w_e_i_r_d_o'
p440
(dp441
sS'Thomas%20Boland'
p442
(dp443
sS'Amelia'
p444
(dp445
sS'Dawntalic%20'
p446
(dp447
sS'biggusdickus'
p448
(dp449
sS'Fourseasonsfox'
p450
(dp451
sS'Kingofspades'
p452
(dp453
sS'Cows_customs'
p454
(dp455
sS'ratrocketart'
p456
(dp457
sS'chromatickid'
p458
(dp459
sS'Andrew%20Baran'
p460
(dp461
sS'ryekyu'
p462
(dp463
sS'AlisaDoodles'
p464
(dp465
sS'Bearserk'
p466
(dp467
sS'Skrattadu'
p468
(dp469
sS'Fizzgig'
p470
(dp471
sS'LostWoods'
p472
(dp473
sS'yamwithchocomilk'
p474
(dp475
sS'Duncan'
p476
(dp477
sS'Drawing.cactuss'
p478
(dp479
sS'Kierstyn'
p480
(dp481
sS'Lazalkr'
p482
(dp483
sS'rosakarlose'
p484
(dp485
sS'Lancenuato'
p486
(dp487
sS'Nocturtle27'
p488
(dp489
sS'Hyacinth'
p490
(dp491
sS'Gwen%20Black'
p492
(dp493
sS'AlexReeder'
p494
(dp495
sS'Freyburg'
p496
(dp497
sS'Gina'
p498
(dp499
sS'Tristanium1'
p500
(dp501
sS'Hannah '
p502
(dp503
sS'Travishat'
p504
(dp505
sS'ThatOneDude'
p506
(dp507
sS'daniel'
p508
(dp509
sS'Michealgrisy'
p510
(dp511
sS'Digital.Ghost'
p512
(dp513
sS'Terri%20'
p514
(dp515
sS'MyleswithaY'
p516
(dp517
sS'aves2'
p518
(dp519
sS'ArtisticBuiscuts'
p520
(dp521
sS'andreissad'
p522
(dp523
sS'Mean%20bean'
p524
(dp525
sS'Bailf006'
p526
(dp527
sS'Kodi'
p528
(dp529
sS'peachshibes'
p530
(dp531
sS'Bukky'
p532
(dp533
sS'centauricos'
p534
(dp535
sS'lollandist'
p536
(dp537
sS'Tamakid'
p538
(dp539
sS'AesthexticFricks'
p540
(dp541
sS'AnnBew'
p542
(dp543
sS'Roscallema(%3F)%20:B'
p544
(dp545
sS'Merkle1234'
p546
(dp547
sS'dojafat'
p548
(dp549
sS'Homie%20Witha%20Hood'
p550
(dp551
sS'maxluigi256'
p552
(dp553
sS'crissing'
p554
(dp555
sS'SamuelDraper'
p556
(dp557
sS'K%20Jaz'
p558
(dp559
sS'jekeong'
p560
(dp561
sS'DE%20'
p562
(dp563
sS'Panda'
p564
(dp565
sS'FireFarm'
p566
(dp567
sS'Madimations'
p568
(dp569
sS'Nocchi'
p570
(dp571
sS'Terraky'
p572
(dp573
sS'chanchan1'
p574
(dp575
sS'Louise:)'
p576
(dp577
sS'Letourneau%20Art'
p578
(dp579
sS'A%20Few%20Idiots'
p580
(dp581
sS'Zestie'
p582
(dp583
sS'Slippery._.seal'
p584
(dp585
sS'Jyke%20The%20Person'
p586
(dp587
sS'Bossu Finn'
p588
(dp589
sS'Lerelestastu'
p590
(dp591
sS'masterchewtoy'
p592
(dp593
sS'OhHeyLookATree'
p594
(dp595
sS'AshleyValkyrie%20'
p596
(dp597
sS'Lolijn'
p598
(dp599
sS'xavvypls'
p600
(dp601
sS'Jaded_dream_K'
p602
(dp603
sS'Cupcake'
p604
(dp605
sS'carsonriegger'
p606
(dp607
sS'Nutellafreakazoid'
p608
(dp609
sS'Blaine_dead'
p610
(dp611
sS'Vishwa'
p612
(dp613
sS'odagroda'
p614
(dp615
sS'Mitravinda'
p616
(dp617
sS'Elementalhound'
p618
(dp619
sS'elgranm3n'
p620
(dp621
sS'Spider%20Man'
p622
(dp623
sS'tinamitroshina'
p624
(dp625
sS'Newtoto'
p626
(dp627
sS'Cyro'
p628
(dp629
sS'GawkyTokki'
p630
(dp631
sS'CluelessArtist'
p632
(dp633
sS'manuel fm'
p634
(dp635
sS'Figure'
p636
(dp637
sS'Chloe'
p638
(dp639
sS'TheYellowMan'
p640
(dp641
sS'giascle'
p642
(dp643
sS'Nancydet'
p644
(dp645
sS'Beuthner'
p646
(dp647
sS'im1sweething'
p648
(dp649
sS'Essermark'
p650
(dp651
sS'Seo'
p652
(dp653
sS'Tjramuilar'
p654
(dp655
sS'Sophie%20Kamlish'
p656
(dp657
sS'Mythical%20Doodlez%20'
p658
(dp659
sS'meme'
p660
(dp661
sS'Lovelessrussia'
p662
(dp663
sS'Villous'
p664
(dp665
sS'Bylmaxwell'
p666
(dp667
sS'Isabella1230702%20'
p668
(dp669
sS'Angela'
p670
(dp671
sS'Mine'
p672
(dp673
sS'Beemberjams'
p674
(dp675
sS'Maddie'
p676
(dp677
sS'ItzJustAce'
p678
(dp679
sS'AsLongAsWeTry'
p680
(dp681
sS'Holly'
p682
(dp683
sS'HilariocoaBy'
p684
(dp685
sS'Thb%20'
p686
(dp687
sS'ElQwerty'
p688
(dp689
sS'Connor%20B.'
p690
(dp691
sS'Spider Man'
p692
(dp693
sS'Archit'
p694
(dp695
sS'FaNi'
p696
(dp697
sS'nineoneone'
p698
(dp699
sS'Coolfidence'
p700
(dp701
sS'Akira%20Haru'
p702
(dp703
sS'Devon'
p704
(dp705
sS'THEE%20FOX'
p706
(dp707
sS'theronmoten'
p708
(dp709
sS'map*entertainments'
p710
(dp711
sS'Moeru'
p712
(dp713
sS'JellyPopOwO%20'
p714
(dp715
sS'grimjl'
p716
(dp717
sS'Piraba%20'
p718
(dp719
sS'bajira'
p720
(dp721
sS'ryrinshi'
p722
(dp723
sS'Luca'
p724
(dp725
sS'diishii'
p726
(dp727
sS'desss'
p728
(dp729
sS'LookItsMrT'
p730
(dp731
sS'Chikunia'
p732
(dp733
sS'don'
p734
(dp735
sS'TheAnimeBun'
p736
(dp737
sS'Aidan'
p738
(dp739
sS'Mahve'
p740
(dp741
sS'BusBasher'
p742
(dp743
sS'bpbp'
p744
(dp745
sS'GoodGuyChapo!'
p746
(dp747
sS'Crazyfox166'
p748
(dp749
sS'CPGreeno'
p750
(dp751
sS'Potato%20Man'
p752
(dp753
sS'Temperandsentience'
p754
(dp755
sS'Curly'
p756
(dp757
sS'Scribbling%20shit'
p758
(dp759
sS'Abdul'
p760
(dp761
sS'@kayjay.art_spfx'
p762
(dp763
sS'hjz02'
p764
(dp765
sS'eroninja'
p766
(dp767
sS'Alex0w0'
p768
(dp769
sS'Sweaty'
p770
(dp771
sS'Sgt_Pugsly'
p772
(dp773
sS'Skylar'
p774
(dp775
sS'suportealan'
p776
(dp777
sS'ArousedSalmon'
p778
(dp779
sS'Matvej'
p780
(dp781
sS'Melon'
p782
(dp783
sS'TippingTeapots'
p784
(dp785
sS'Anna'
p786
(dp787
sS'drawing_lara'
p788
(dp789
sS'aawidarta'
p790
(dp791
sS'JohnJohn'
p792
(dp793
sS'Urchin'
p794
(dp795
sS'Flonny'
p796
(dp797
sS'Nosoytimida'
p798
(dp799
sS'L_times2'
p800
(dp801
sS'Dordrawzz'
p802
(dp803
sS'Bubble_T'
p804
(dp805
sS'@svarzye'
p806
(dp807
sS'Sarahbl'
p808
(dp809
sS'AndrewTawfik'
p810
(dp811
sS'L.E%20'
p812
(dp813
sS'jermaine'
p814
(dp815
sS'SwegGreg'
p816
(dp817
sS'nikosiim'
p818
(dp819
sS'Bucky%20'
p820
(dp821
sS'GravitysError'
p822
(dp823
sS'Sasa'
p824
(dp825
sS'mindy5427'
p826
(dp827
sS'jeffseq'
p828
(dp829
sS'Metaduxos'
p830
(dp831
sS'DanGuyComics'
p832
(dp833
sS'Some_Tatti_Art'
p834
(dp835
sS'So_what287'
p836
(dp837
sS'Bananaman'
p838
(dp839
sS'%20NickDrawPjWerio'
p840
(dp841
sS'Karim%20Abdo'
p842
(dp843
sS'CPGreeno357'
p844
(dp845
sS'SomeWierdGamer'
p846
(dp847
sS'Jupiter'
p848
(dp849
sS'Darko'
p850
(dp851
sS'LOLLYDOPE249'
p852
(dp853
sS'Cheenapus'
p854
(dp855
sS'KytoonsStudios'
p856
(dp857
sS'dorveille'
p858
(dp859
sS'Dogg'
p860
(dp861
sS'Doge'
p862
(dp863
sS'SOMBRA.dy'
p864
(dp865
sS'Awsomgames'
p866
(dp867
sS'Embertheshadow'
p868
(dp869
sS'Sydney'
p870
(dp871
sS'Wkndsnack'
p872
(dp873
sS'Nonsenpai'
p874
(dp875
sS'Remeneth'
p876
(dp877
sS'Duarte'
p878
(dp879
sS'VanishingFin'
p880
(dp881
sS'Zach%20Snowfox'
p882
(dp883
sS'gnarlybirds'
p884
(dp885
sS'dfvfefuyfdvfwety'
p886
(dp887
sS'Onee-sama'
p888
(dp889
sS'Timothybaria'
p890
(dp891
sS'narrattor'
p892
(dp893
sS'Rintama'
p894
(dp895
sS'Had0k3n'
p896
(dp897
sS'seaco'
p898
(dp899
sS'BigShoeStudio'
p900
(dp901
sS'SinfulCola'
p902
(dp903
sS'Admoona'
p904
(dp905
sS'Larryfuege'
p906
(dp907
sS'Rounda_Bout'
p908
(dp909
sS'Meah_Senpai'
p910
(dp911
sS'@fandom_art_by_me'
p912
(dp913
sS'THICCOLO'
p914
(dp915
sS'KikaJenson'
p916
(dp917
sS'Artwarkie'
p918
(dp919
sS'Mia~'
p920
(dp921
sS'Genie'
p922
(dp923
sS'JohnnyFive'
p924
(dp925
sS'Yugenmcneil'
p926
(dp927
sS'justalicream'
p928
(dp929
sS'Daheris'
p930
(dp931
sS'Mousibald'
p932
(dp933
sS'Etty'
p934
(dp935
sS'Purple%20Alien'
p936
(dp937
sS'Samantha'
p938
(dp939
sS'Dawn'
p940
(dp941
sS'sh4rk'
p942
(dp943
sS'mattt'
p944
(dp945
sS'Apotato%20'
p946
(dp947
sS'Cypress%20'
p948
(dp949
sS'Meow the Fronk'
p950
(dp951
sS'Meowskei'
p952
(dp953
sS'Engendro'
p954
(dp955
sS'Squishynightmre'
p956
(dp957
sS'Goodequaltimee'
p958
(dp959
sS'Claudia%20K.'
p960
(dp961
sS'Ma1ixu'
p962
(dp963
sS'Shiii'
p964
(dp965
sS'mirramakovva'
p966
(dp967
sS'Lemon_Nae'
p968
(dp969
sS'RandallroK'
p970
(dp971
sS'Viking%20Studios'
p972
(dp973
sS'Brodyanimates'
p974
(dp975
sS'No%20thank%20you'
p976
(dp977
sS'kesvn'
p978
(dp979
sS'Sandman'
p980
(dp981
sS'dozens'
p982
(dp983
sS'Ukuleylee'
p984
(dp985
sS'Kabwe%20Hammedy'
p986
(dp987
sS'Chunky Squelch'
p988
(dp989
sS'ThePigeon'
p990
(dp991
sS'Risus'
p992
(dp993
sS'sunshine'
p994
(dp995
sS'Zesphonase'
p996
(dp997
sS'fesk'
p998
(dp999
sS'Stacydox'
p1000
(dp1001
sS'JasMelon'
p1002
(dp1003
sS'Angeliler'
p1004
(dp1005
sS'ezszmz'
p1006
(dp1007
sS'Randomwolf33'
p1008
(dp1009
sS'Velvpresyla'
p1010
(dp1011
sS'Chesterseara'
p1012
(dp1013
sS'edvikke'
p1014
(dp1015
sS'Iamshelbyrose'
p1016
(dp1017
sS'Gabby%20Twerdohlib'
p1018
(dp1019
sS'Angels%20moth'
p1020
(dp1021
sS'B3DH3D'
p1022
(dp1023
sS'TNekitbka'
p1024
(dp1025
sS'Meowdle_'
p1026
(dp1027
sS'mia_m__'
p1028
(dp1029
sS'longnyu'
p1030
(dp1031
sS'Schmeckel'
p1032
(dp1033
sS'brentsquared'
p1034
(dp1035
sS'Ambsswmft%20'
p1036
(dp1037
sS'AlienPostica'
p1038
(dp1039
sS'Tuesday'
p1040
(dp1041
sS'Miljanuary'
p1042
(dp1043
sS'Aymmin-Arts'
p1044
(dp1045
sS'Tasuri'
p1046
(dp1047
sS'Nad'
p1048
(dp1049
sS'FantasticJammy'
p1050
(dp1051
sS'sparklygatorade'
p1052
(dp1053
sS'KawaiiNeko'
p1054
(dp1055
sS'Blyat'
p1056
(dp1057
sS'alexowo'
p1058
(dp1059
sS'Mattwithapen'
p1060
(dp1061
sS'EdamameBean'
p1062
(dp1063
sS'Vaishakh'
p1064
(dp1065
sS'PulsingSoul'
p1066
(dp1067
sS'Athena'
p1068
(dp1069
sS'Robro'
p1070
(dp1071
sS'martyadamsmith'
p1072
(dp1073
sS'Cartoonist%20Caz'
p1074
(dp1075
sS'James'
p1076
(dp1077
sS'Solojojo'
p1078
(dp1079
sS'SteveWaype'
p1080
(dp1081
sS'Squalog'
p1082
(dp1083
sS'BrindleBerry02'
p1084
(dp1085
sS'Hollie'
p1086
(dp1087
sS'oo55'
p1088
(dp1089
sS'Goemon'
p1090
(dp1091
sS'Daymare.brand'
p1092
(dp1093
sS'strawhairy'
p1094
(dp1095
sS'Mi%C3%A4%C3%A4%C3%A4h!'
p1096
(dp1097
sS'Sreevidya'
p1098
(dp1099
sS'jko'
p1100
(dp1101
sS'Nohaha'
p1102
(dp1103
sS'jasss'
p1104
(dp1105
sS'EBE'
p1106
(dp1107
sS'another_one'
p1108
(dp1109
sS'Brucelymn'
p1110
(dp1111
sS'Lulu'
p1112
(dp1113
sS'The%20kid'
p1114
(dp1115
sS'S.Leet'
p1116
(dp1117
sS'Hillyboi'
p1118
(dp1119
sS'kkirkives'
p1120
(dp1121
sS'Alex_thecat'
p1122
(dp1123
sS'Sad%20Fella'
p1124
(dp1125
sS'Zygoat'
p1126
(dp1127
sS'Sarah'
p1128
(dp1129
sS'katyaminavsk'
p1130
(dp1131
sS'BethHarMonica'
p1132
(dp1133
sS'Raver'
p1134
(dp1135
sS'Xueyi'
p1136
(dp1137
sS'mills'
p1138
(dp1139
sS'Dragatile'
p1140
(dp1141
sS'oofer'
p1142
(dp1143
sS'Wire'
p1144
(dp1145
sS'Rainy_musings'
p1146
(dp1147
sS'Emeraldfire'
p1148
(dp1149
sS'MongolianWarlord'
p1150
(dp1151
sS'BoredUsagi'
p1152
(dp1153
sS'ham'
p1154
(dp1155
sS'ramenclaw'
p1156
(dp1157
sS'leszekcygan'
p1158
(dp1159
sS'Asterisk'
p1160
(dp1161
sS'mothgoth'
p1162
(dp1163
sS'Astoria'
p1164
(dp1165
sS'Casa%20Carbone'
p1166
(dp1167
sS'Symmetricalist'
p1168
(dp1169
sS'yolkratio'
p1170
(dp1171
sS'burrhutking'
p1172
(dp1173
sS'Cassiopeia%20'
p1174
(dp1175
sS'Gae'
p1176
(dp1177
sS'LexTheInkShadow04'
p1178
(dp1179
sS'FireWall720'
p1180
(dp1181
sS'Vjay'
p1182
(dp1183
sS'Gabriel'
p1184
(dp1185
sS'Froglord7178'
p1186
(dp1187
sS'Ember'
p1188
(dp1189
sS'CosmoNerd'
p1190
(dp1191
sS'19dee96'
p1192
(dp1193
sS'RosesArePrickly'
p1194
(dp1195
sS'dDG89'
p1196
(dp1197
sS'sophie_snakeheart'
p1198
(dp1199
sS'judge'
p1200
(dp1201
sS'Javijavisosauvy'
p1202
(dp1203
sS'Face_Cat'
p1204
(dp1205
sS'XenMep'
p1206
(dp1207
sS'geeordee'
p1208
(dp1209
sS'erikalimezsart'
p1210
(dp1211
sS'y3liak'
p1212
(dp1213
sS'mizuneko'
p1214
(dp1215
sS'Ember03'
p1216
(dp1217
sS'Zweih%C3%A4nder%20'
p1218
(dp1219
sS'Steven'
p1220
(dp1221
sS'StrunDuse'
p1222
(dp1223
sS'Alex%20(tkaoaii.artz)'
p1224
(dp1225
sS'Kirito-Kun'
p1226
(dp1227
sS'Thesuperiorpink'
p1228
(dp1229
sS'ninok'
p1230
(dp1231
sS'popcorn._.drawings'
p1232
(dp1233
sS'crown'
p1234
(dp1235
sS'borp'
p1236
(dp1237
sS'Noel'
p1238
(dp1239
sS'prick'
p1240
(dp1241
sS'scribblerpop'
p1242
(dp1243
sS'seedboi'
p1244
(dp1245
sS'Samuelbet'
p1246
(dp1247
sS'Fren%20Ray'
p1248
(dp1249
sS'Jimbob'
p1250
(dp1251
sS'ellocin'
p1252
(dp1253
sS'HoshiParrot'
p1254
(dp1255
sS'seaborg'
p1256
(dp1257
sS'KYLEEKEITH'
p1258
(dp1259
sS'Dave'
p1260
(dp1261
sS'listerart'
p1262
(dp1263
sS'Vexris'
p1264
(dp1265
sS'Chris'
p1266
(dp1267
sS'Ley'
p1268
(dp1269
sS'Weird%20Octopus'
p1270
(dp1271
sS'Origami%20Owl'
p1272
(dp1273
sS'Vyr'
p1274
(dp1275
sS'jewkas'
p1276
(dp1277
sS'alfiemilky40bodygore'
p1278
(dp1279
sS'Mokke'
p1280
(dp1281
sS'hitesh'
p1282
(dp1283
sS'alechaca58'
p1284
(dp1285
sS'EC07'
p1286
(dp1287
sS'Anima'
p1288
(dp1289
sS'DaniloCz'
p1290
(dp1291
sS'YameChan'
p1292
(dp1293
sS'ImmaChickenDoy'
p1294
(dp1295
sS'rachel'
p1296
(dp1297
sS'hasellete'
p1298
(dp1299
sS'powpow'
p1300
(dp1301
sS'Maulgrymm%20%20'
p1302
(dp1303
sS'peeoe'
p1304
(dp1305
sS'Mongo0se'
p1306
(dp1307
sS'twelve%20cats'
p1308
(dp1309
sS'potatohead'
p1310
(dp1311
sS'fyjchg'
p1312
(dp1313
sS'Renata'
p1314
(dp1315
sS'tritbaumber'
p1316
(dp1317
sS'auntnemi'
p1318
(dp1319
sS'PortugueseGeese'
p1320
(dp1321
sS'Chara%20'
p1322
(dp1323
sS'@kalelcomics'
p1324
(dp1325
sS'Cameron'
p1326
(dp1327
sS'raido'
p1328
(dp1329
sS'Goats_n_drawshit'
p1330
(dp1331
sS'javad'
p1332
(dp1333
sS'pineapples'
p1334
(dp1335
sS'kobble'
p1336
(dp1337
sS'jakermaker'
p1338
(dp1339
sS'glebovalex'
p1340
(dp1341
sS'Sir_Mr_The_3rd_Esq'
p1342
(dp1343
sS'Decim'
p1344
(dp1345
sS'forgivenvalues'
p1346
(dp1347
sS'Hunson'
p1348
(dp1349
sS'Aaron'
p1350
(dp1351
sS'Ghostfall'
p1352
(dp1353
sS'AlixirX%20'
p1354
(dp1355
sS'duskglider'
p1356
(dp1357
sS'zuku'
p1358
(dp1359
sS'Normautine'
p1360
(dp1361
sS'Shawn'
p1362
(dp1363
sS'Hana'
p1364
(dp1365
sS'DarklySweetComics'
p1366
(dp1367
sS'Sapphire_pack_14%20'
p1368
(dp1369
sS'Pixie'
p1370
(dp1371
sS'Baltvaro'
p1372
(dp1373
sS'joseph'
p1374
(dp1375
sS'buddyp@l'
p1376
(dp1377
sS'Per.Pen.di.Peculiar'
p1378
(dp1379
sS'Domer%20Simpson'
p1380
(dp1381
sS'Nizam'
p1382
(dp1383
sS'Cat_Obsession'
p1384
(dp1385
sS'Thorbie'
p1386
(dp1387
sS'Aqui'
p1388
(dp1389
sS'Sverdfisken'
p1390
(dp1391
sS'therubster67'
p1392
(dp1393
sS'BrickBen'
p1394
(dp1395
sS'BeckyShy'
p1396
(dp1397
sS'redheadsoldier'
p1398
(dp1399
sS'boringflex'
p1400
(dp1401
sS'Paradoxicality'
p1402
(dp1403
sS'cookiesady'
p1404
(dp1405
sS'Kepandgrim'
p1406
(dp1407
sS'cedes'
p1408
(dp1409
sS'Somakiller'
p1410
(dp1411
sS'Txeknee'
p1412
(dp1413
sS'Sebeelzebub'
p1414
(dp1415
sS'yeetmgee'
p1416
(dp1417
sS'Caspian'
p1418
(dp1419
sS'Shenpai.ponyboyyy'
p1420
(dp1421
sS'PanelJamPie'
p1422
(dp1423
sS'snailwizard'
p1424
(dp1425
sS'TheButterFlower'
p1426
(dp1427
sS'Kristen%20Graves'
p1428
(dp1429
sS'Spooksandra%20'
p1430
(dp1431
sS'Red_Hood'
p1432
(dp1433
sS'Reducing'
p1434
(dp1435
sS'Chelseasmalling'
p1436
(dp1437
sS'KringlePringles'
p1438
(dp1439
sS'AnIdiotSandwich'
p1440
(dp1441
sS'Bitcoinmak'
p1442
(dp1443
sS'Quintessentia'
p1444
(dp1445
sS'Edouard'
p1446
(dp1447
sS'austinfrick'
p1448
(dp1449
sS'Soonafterart'
p1450
(dp1451
sS'Melissa'
p1452
(dp1453
sS'Vianey%20Arellano'
p1454
(dp1455
sS'Card%20game%20dinosaur'
p1456
(dp1457
sS'Sim'
p1458
(dp1459
sS'mukaltin'
p1460
(dp1461
sS'lookBew'
p1462
(dp1463
sS'gwenmlo'
p1464
(dp1465
sS'Cr3ativeShells'
p1466
(dp1467
sS'Ashly%20'
p1468
(dp1469
sS'Andrew'
p1470
(dp1471
sS'LuckyOguin'
p1472
(dp1473
sS'Ellen%20'
p1474
(dp1475
sS'Hoops'
p1476
(dp1477
sS'mimixstarx'
p1478
(dp1479
sS'Hydra'
p1480
(dp1481
sS'Idk'
p1482
(dp1483
sS'technob'
p1484
(dp1485
sS'The%20Green%20Flame'
p1486
(dp1487
sS'easycheesy'
p1488
(dp1489
sS'Cre8tive.franklin%20'
p1490
(dp1491
sS'Haydao'
p1492
(dp1493
sS'Jess'
p1494
(dp1495
sS'nicoleham'
p1496
(dp1497
sS'Aurelius_x'
p1498
(dp1499
sS'OSiD54'
p1500
(dp1501
sS'OtherThatGuy'
p1502
(dp1503
sS'CakeIsALie'
p1504
(dp1505
sS'Chicken'
p1506
(dp1507
sS'Pata-toes'
p1508
(dp1509
sS'Emily'
p1510
(dp1511
sS'Mojomos'
p1512
(dp1513
sS'CamyS'
p1514
(dp1515
sS'Uugh'
p1516
(dp1517
sS'Melvadine'
p1518
(dp1519
sS'Marshy'
p1520
(dp1521
sS'Reensarai'
p1522
(dp1523
sS'Nadia'
p1524
(dp1525
sS'mila'
p1526
(dp1527
sS"_iCan'tDraw_"
p1528
(dp1529
sS'Cameo of the Sun'
p1530
(dp1531
sS'Dad'
p1532
(dp1533
sS'NymAno'
p1534
(dp1535
sS'CATAnimate'
p1536
(dp1537
sS'drae'
p1538
(dp1539
sS'lufta'
p1540
(dp1541
sS'SamouraiOiseau'
p1542
(dp1543
sS'MissSaraRikka'
p1544
(dp1545
sS'zab%F0%9F%8D%8B'
p1546
(dp1547
sS'@Thirza_sketch_book'
p1548
(dp1549
sS'HazyUniverse'
p1550
(dp1551
sS'Hauntedm'
p1552
(dp1553
sS'timon'
p1554
(dp1555
sS'Lumi.Raven'
p1556
(dp1557
sS'thesassmisstress'
p1558
(dp1559
sS'Sadurn'
p1560
(dp1561
sS'rmcandy'
p1562
(dp1563
sS'Comixawesome'
p1564
(dp1565
sS'Michael_Scarn'
p1566
(dp1567
sS'Nokia3310'
p1568
(dp1569
sS'CBG%20'
p1570
(dp1571
sS'Whispies'
p1572
(dp1573
sS'SewingLady'
p1574
(dp1575
sS'Tav'
p1576
(dp1577
sS'Pixilno'
p1578
(dp1579
sS'HilaasuIaa'
p1580
(dp1581
sS'brokewriterchic'
p1582
(dp1583
sS'Kaylee'
p1584
(dp1585
sS'Lacri_Is_Stupid567'
p1586
(dp1587
sS'Been13'
p1588
(dp1589
sS'Alisarticwolf%20AJ'
p1590
(dp1591
sS'reddtrashbag'
p1592
(dp1593
sS'IMAPNESS'
p1594
(dp1595
sS'Luster.EXE'
p1596
(dp1597
sS'rjacobot'
p1598
(dp1599
sS'Potatopeelerkind'
p1600
(dp1601
sS'andyboo'
p1602
(dp1603
sS'Senpai%20Bean'
p1604
(dp1605
sS'Rev'
p1606
(dp1607
sS'xbelle.art'
p1608
(dp1609
sS'MergadExpot'
p1610
(dp1611
sS'ideasflyingaway'
p1612
(dp1613
sS'AdamSchneider'
p1614
(dp1615
sS'Walnutto'
p1616
(dp1617
sS'Dingus'
p1618
(dp1619
sS'Foxcoco'
p1620
(dp1621
sS'Literally%20a%20ship'
p1622
(dp1623
sS'tuyuri'
p1624
(dp1625
sS'Mason%20'
p1626
(dp1627
sS'Potatoganda'
p1628
(dp1629
sS'Steve%20Jarvis%20'
p1630
(dp1631
sS'DarkGuardian'
p1632
(dp1633
sS'Emma'
p1634
(dp1635
sS'keithhh'
p1636
(dp1637
sS'Beember-jams'
p1638
(dp1639
sS'j.upu'
p1640
(dp1641
sS'Davian'
p1642
(dp1643
sS'Emilysalsburyrobunny'
p1644
(dp1645
sS'Mileny%20Gatheris'
p1646
(dp1647
sS'LiqHan'
p1648
(dp1649
sS'facelessdrawings'
p1650
(dp1651
sS'Claire!'
p1652
(dp1653
sS'Emmy'
p1654
(dp1655
sS'Fernando_Animations'
p1656
(dp1657
sS'cheeseplatter'
p1658
(dp1659
sS'Art.frankie'
p1660
(dp1661
sS'FiberBriver'
p1662
(dp1663
sS'ImaZebraZab'
p1664
(dp1665
sS'Birdchii'
p1666
(dp1667
sS'MK'
p1668
(dp1669
sS'MJ'
p1670
(dp1671
sS'Watashi%20'
p1672
(dp1673
sS'81-Alien'
p1674
(dp1675
sS'Geneva%20g'
p1676
(dp1677
sS'cherrybread'
p1678
(dp1679
sS'Marmanic'
p1680
(dp1681
sS'Tim%20Morris'
p1682
(dp1683
sS'DaytonJones'
p1684
(dp1685
sS'alexfriedman360'
p1686
(dp1687
sS'Mi%C3%A4%C3%A4%C3%A4h'
p1688
(dp1689
sS'JohnnyAlpha'
p1690
(dp1691
sS'ShurikTheShoe'
p1692
(dp1693
sS'TJuice'
p1694
(dp1695
sS'Southern%20Boulevard'
p1696
(dp1697
sS'rambs'
p1698
(dp1699
sS'MissSezia'
p1700
(dp1701
sS'Penelopez'
p1702
(dp1703
sS'Marblarg'
p1704
(dp1705
sS'Drawception'
p1706
(dp1707
sS'ariel'
p1708
(dp1709
sS'Waphels'
p1710
(dp1711
sS'Bunbun'
p1712
(dp1713
sS'Nixa'
p1714
(dp1715
sS'bill'
p1716
(dp1717
sS'homersimpson89'
p1718
(dp1719
sS'AliceBew'
p1720
(dp1721
sS'Kokorogumi'
p1722
(dp1723
sS'Allchang'
p1724
(dp1725
sS'Jado'
p1726
(dp1727
sS'Poeticy'
p1728
(dp1729
sS'oof'
p1730
(dp1731
sS'Ashi'
p1732
(dp1733
sS'Meowezio'
p1734
(dp1735
sS"jinju's%20artroom"
p1736
(dp1737
sS'boringgoodietwoshoes'
p1738
(dp1739
sS'Bea'
p1740
(dp1741
sS'CaptainRobot%F0%9F%92%8E'
p1742
(dp1743
sS'NukiIsCoolAmirite'
p1744
(dp1745
sS'notquiteright_comics'
p1746
(dp1747
sS'DERlicious'
p1748
(dp1749
sS'SpookJuice'
p1750
(dp1751
sS'Ufabetboxx'
p1752
(dp1753
sS'shanellaneneria'
p1754
(dp1755
sS'Ron'
p1756
(dp1757
sS'Temptatious'
p1758
(dp1759
sS'German'
p1760
(dp1761
sS'eraserburger'
p1762
(dp1763
sS'spitsplitty'
p1764
(dp1765
sS'Kawaiikaci666'
p1766
(dp1767
sS'CharlesDyeno'
p1768
(dp1769
sS'Chelsea%20'
p1770
(dp1771
sS'Xenobrane%20-%20RD'
p1772
(dp1773
sS'Abs'
p1774
(dp1775
sS'Thirza_Sketch_Book'
p1776
(dp1777
sS'Jenndar'
p1778
(dp1779
sS'The%20Bracket%20Lizard'
p1780
(dp1781
sS'hififeni'
p1782
(dp1783
sS'Nikusha'
p1784
(dp1785
sS'Meelee%20Art'
p1786
(dp1787
sS'Min'
p1788
(dp1789
sS'bbisthebest'
p1790
(dp1791
sS'Dinum'
p1792
(dp1793
sS'nyanpasu'
p1794
(dp1795
sS'Grimore'
p1796
(dp1797
sS'Mcnurr'
p1798
(dp1799
sS'Serenity%20'
p1800
(dp1801
sS'PieterPost'
p1802
(dp1803
sS'_cirrustea_'
p1804
(dp1805
sS'Atem%20Kira'
p1806
(dp1807
sS'fifora'
p1808
(dp1809
sS'CondescendeddWow'
p1810
(dp1811
sS'EmilyMay'
p1812
(dp1813
sS'Presto'
p1814
(dp1815
sS'Bunny'
p1816
(dp1817
sS'itBroke'
p1818
(dp1819
sS'SuperMarioGamerX'
p1820
(dp1821
sS'Pinsel'
p1822
(dp1823
sS'Zacharieribbit'
p1824
(dp1825
sS'Chartreux'
p1826
(dp1827
sS'SkeletonBoi'
p1828
(dp1829
sS'Natalie'
p1830
(dp1831
sS'Chillthinkingemoji'
p1832
(dp1833
sS'CoffCoff'
p1834
(dp1835
sS'annaeng'
p1836
(dp1837
sS'ironically horny'
p1838
(dp1839
sS'Schiggysam'
p1840
(dp1841
sS'Ricclord'
p1842
(dp1843
sS'Lamest'
p1844
(dp1845
sS'HegaToons'
p1846
(dp1847
sS'aRtymis'
p1848
(dp1849
sS'Katia'
p1850
(dp1851
sS'BakonCid'
p1852
(dp1853
sS'Pannapple'
p1854
(dp1855
sS'mo.tive'
p1856
(dp1857
sS'alyazia'
p1858
(dp1859
sS'suckmypenc1l'
p1860
(dp1861
sS'CandleQueen'
p1862
(dp1863
sS'mango'
p1864
(dp1865
sS'Redwolf%20'
p1866
(dp1867
sS'MANNING259'
p1868
(dp1869
sS'Bobthetoilet'
p1870
(dp1871
sS'pierina'
p1872
(dp1873
sS'SpaceyBeing'
p1874
(dp1875
sS'CIOBY'
p1876
(dp1877
sS'SAMiAm'
p1878
(dp1879
sS'Jam'
p1880
(dp1881
sS'Adarsh_Kd'
p1882
(dp1883
sS'Star.skunk'
p1884
(dp1885
sS'Clushed6'
p1886
(dp1887
sS'Jae'
p1888
(dp1889
sS'Flamescravidson'
p1890
(dp1891
sS'Fea'
p1892
(dp1893
sS'Rain'
p1894
(dp1895
sS'aniesque'
p1896
(dp1897
sS'Vincenthal'
p1898
(dp1899
sS'flooper69'
p1900
(dp1901
sS'maia'
p1902
(dp1903
sS'ssgsdfasdgs'
p1904
(dp1905
sS'imeanimeme'
p1906
(dp1907
sS'FoieGramen'
p1908
(dp1909
sS'smgtrnkhwgj;kt'
p1910
(dp1911
sS'Potato Man'
p1912
(dp1913
sS'Reverse%20Flash'
p1914
(dp1915
sS'thundervolt'
p1916
(dp1917
sS'laurau'
p1918
(dp1919
sS'veravii'
p1920
(dp1921
sS'Akita'
p1922
(dp1923
sS'zaish_dunac'
p1924
(dp1925
sS'Baaic.mp3'
p1926
(dp1927
sS'Nini%20'
p1928
(dp1929
sS'datboi'
p1930
(dp1931
sS'minnphotography'
p1932
(dp1933
sS'nitthilan'
p1934
(dp1935
sS'JoshuaKeller'
p1936
(dp1937
sS'equality'
p1938
(dp1939
sS'PlayerZ3D'
p1940
(dp1941
sS'nikkie'
p1942
(dp1943
sS'DEZEBANDZ'
p1944
(dp1945
sS'ShutupDave'
p1946
(dp1947
sS'ChainSilver'
p1948
(dp1949
sS'jetrocker7'
p1950
(dp1951
sS'jomi'
p1952
(dp1953
sS'Elon%20Muskrat'
p1954
(dp1955
sS'MosesCries'
p1956
(dp1957
sS'Eliot'
p1958
(dp1959
sS'Luke%20Evanshen'
p1960
(dp1961
sS'mr.marvelous'
p1962
(dp1963
sS'krai'
p1964
(dp1965
sS'Lux'
p1966
(dp1967
sS'Laurens'
p1968
(dp1969
sS'bunnie'
p1970
(dp1971
sS'acidunicorn'
p1972
(dp1973
sS'LovelyLizardSnakes'
p1974
(dp1975
sS'Fluffyegg'
p1976
(dp1977
sS'Jos'
p1978
(dp1979
sS'SamSix'
p1980
(dp1981
sS'Joldsworth'
p1982
(dp1983
sS'Oreobot'
p1984
(dp1985
sS'Thund3r'
p1986
(dp1987
sS'Livvy'
p1988
(dp1989
sS'NariKi'
p1990
(dp1991
sS'DarkPiwo%20'
p1992
(dp1993
sS'Big%20Cornonda'
p1994
(dp1995
sS'hilaom'
p1996
(dp1997
sS'spoopypluto'
p1998
(dp1999
sS'Fearprototype'
p2000
(dp2001
sS'jeggjeglum'
p2002
(dp2003
sS'Funi_chan'
p2004
(dp2005
sS'skeleroses'
p2006
(dp2007
sS'chiaxion'
p2008
(dp2009
sS'Judy'
p2010
(dp2011
sS'olkinovskaya'
p2012
(dp2013
sS'EnlightenedChair'
p2014
(dp2015
sS'mimi'
p2016
(dp2017
sS'Callan'
p2018
(dp2019
sS'keith'
p2020
(dp2021
sS'rshiba'
p2022
(dp2023
sS'%E3%82%BD%E3%83%95%E3%82%A3%E3%83%BC'
p2024
(dp2025
sS'PisuCat'
p2026
(dp2027
sS'Fabulfish'
p2028
(dp2029
sS'Julian'
p2030
(dp2031
sS'Erin'
p2032
(dp2033
sS'Elvio34%20Lador342'
p2034
(dp2035
sS'theunexpectedartiste'
p2036
(dp2037
sS'Cat Person'
p2038
(dp2039
sS'Cameo%20of%20the%20Sun'
p2040
(dp2041
sS'AimeePenguins'
p2042
(dp2043
sS'carbonbased%20lifeform'
p2044
(dp2045
sS'Emily%20Redeker%20Art'
p2046
(dp2047
sS'zal'
p2048
(dp2049
sS'Psychotropic'
p2050
(dp2051
sS'Arisumelon'
p2052
(dp2053
sS'B.%20Ray%20'
p2054
(dp2055
sS'Gizzy'
p2056
(dp2057
sS'darkscout'
p2058
(dp2059
sS'Atem'
p2060
(dp2061
sS'GBYellow'
p2062
(dp2063
sS'Chellojello'
p2064
(dp2065
sS'Oliviaaime'
p2066
(dp2067
sS'florese262'
p2068
(dp2069
sS'nospaces'
p2070
(dp2071
sS'Guacodile'
p2072
(dp2073
sS'@m3rch111'
p2074
(dp2075
sS'Chronfused'
p2076
(dp2077
sS'Impoopingrightnow'
p2078
(dp2079
sS'JuliaM.'
p2080
(dp2081
sS'Papoose'
p2082
(dp2083
sS'skreem'
p2084
(dp2085
sS'ripart'
p2086
(dp2087
sS'blokmotion'
p2088
(dp2089
sS'buddypal'
p2090
(dp2091
sS'Rrose.ayee'
p2092
(dp2093
sS'pastelgoosey'
p2094
(dp2095
sS'dannyk'
p2096
(dp2097
sS'CutePompsky'
p2098
(dp2099
sS'spakle02'
p2100
(dp2101
sS'Kawitto24'
p2102
(dp2103
sS'stlk'
p2104
(dp2105
sS'Scry01'
p2106
(dp2107
sS'wolfvswolf'
p2108
(dp2109
sS'Chaelinda'
p2110
(dp2111
sS'PureEatenCheetos'
p2112
(dp2113
sS'a%20leek'
p2114
(dp2115
sS'Court'
p2116
(dp2117
sS'sam'
p2118
(dp2119
sS'Arrow_Bound_'
p2120
(dp2121
sS'DE'
p2122
(dp2123
sS'Tori'
p2124
(dp2125
sS'wrhhfas'
p2126
(dp2127
sS'Fireking1'
p2128
(dp2129
sS'DeathIncrn'
p2130
(dp2131
sS'celinefe'
p2132
(dp2133
sS'lord fagquad'
p2134
(dp2135
sS'Oxxin'
p2136
(dp2137
sS'zoe'
p2138
(dp2139
sS'Corvus'
p2140
(dp2141
sS'Paranausea'
p2142
(dp2143
sS'shortcxke'
p2144
(dp2145
sS'J%C3%B8y'
p2146
(dp2147
sS'DNL'
p2148
(dp2149
sS'Willamsnoob'
p2150
(dp2151
sS'aGermanPepe'
p2152
(dp2153
sS'Quinn'
p2154
(dp2155
sS'LadyUniquecorn'
p2156
(dp2157
sS'Duncsn'
p2158
(dp2159
sS'Ronnoc'
p2160
(dp2161
sS'Riania'
p2162
(dp2163
sS'Justin%20BowenArrow%20'
p2164
(dp2165
sS'Wyc'
p2166
(dp2167
sS'Awesomeariahcomics'
p2168
(dp2169
sS'bugnut111'
p2170
(dp2171
sS'Kirstin'
p2172
(dp2173
sS'Stirps'
p2174
(dp2175
sS'Loafi'
p2176
(dp2177
sS'Frankie'
p2178
(dp2179
sS'rashid'
p2180
(dp2181
sS'That_Trippy_Guy_'
p2182
(dp2183
sS'Fuck'
p2184
(dp2185
sS'emily546'
p2186
(dp2187
sS'eis%20this%20elemental'
p2188
(dp2189
sS'ThecrazyhorseLady'
p2190
(dp2191
sS'Blue'
p2192
(dp2193
sS'Xx_Lord_Bruh_xX'
p2194
(dp2195
sS'arscenii'
p2196
(dp2197
sS'Chunky%20Squelch'
p2198
(dp2199
sS'Ashbutt'
p2200
(dp2201
sS'pingas102'
p2202
(dp2203
sS'Dygb88'
p2204
(dp2205
sS'FuziPanda'
p2206
(dp2207
sS'Awkward%20Adam'
p2208
(dp2209
sS'pastelcoffin'
p2210
(dp2211
sS'Surya'
p2212
(dp2213
sS'Rolo'
p2214
(dp2215
sS'JayJay'
p2216
(dp2217
sS'GeramiahVSTheWorld'
p2218
(dp2219
sS'sircirno'
p2220
(dp2221
sS'Yuri'
p2222
(dp2223
sS'Y.M.R.'
p2224
(dp2225
sS'CarlosDer'
p2226
(dp2227
sS'Richard%20'
p2228
(dp2229
sS'daisy key chain'
p2230
(dp2231
sS'OldRobot'
p2232
(dp2233
sS'Hoppy%20Doodle'
p2234
(dp2235
sS'Vixtar'
p2236
(dp2237
sS'Animoosy'
p2238
(dp2239
sS'BaconKid'
p2240
(dp2241
sS'H'
p2242
(dp2243
sS'Mantis'
p2244
(dp2245
sS'map_entertainments'
p2246
(dp2247
sS'RiginclubSi'
p2248
(dp2249
sS'BickDutt'
p2250
(dp2251
sS'Dilettante'
p2252
(dp2253
sS'Jessipumpkinhead%20'
p2254
(dp2255
sS'Kolahpop'
p2256
(dp2257
sS'Abhishek'
p2258
(dp2259
sS'splatterdot'
p2260
(dp2261
sS'thesexydarklord'
p2262
(dp2263
sS'peachychoncha%20'
p2264
(dp2265
sS'OwO%20uwu'
p2266
(dp2267
sS'Theepalacedoctor'
p2268
(dp2269
sS'Maxel'
p2270
(dp2271
sS'Deduraptor'
p2272
(dp2273
sS'hqwui'
p2274
(dp2275
sS'Joshua%20Fields'
p2276
(dp2277
sS'Wujuj'
p2278
(dp2279
sS'Lelith.Inks'
p2280
(dp2281
sS'DomiCA'
p2282
(dp2283
sS'YellowSheep'
p2284
(dp2285
sS'SnirpSnah'
p2286
(dp2287
sS'BattleForLegoIsland'
p2288
(dp2289
sS'ryochiba'
p2290
(dp2291
sS'Llamakun'
p2292
(dp2293
sS'aghostisaghost'
p2294
(dp2295
sS'Rill_hye'
p2296
(dp2297
sS'Uncommen_Artist'
p2298
(dp2299
sS'SketchieDotNet'
p2300
(dp2301
sS'ImaZebra'
p2302
(dp2303
sS'corri'
p2304
(dp2305
sS'Neran'
p2306
(dp2307
sS'Bellus'
p2308
(dp2309
sS'JoeDahToe'
p2310
(dp2311
sS'LidiaDarkbunny'
p2312
(dp2313
sS'Kuri-Nyann'
p2314
(dp2315
sS'EmperorComics'
p2316
(dp2317
sS'Roxie%20'
p2318
(dp2319
sS'JustJakk'
p2320
(dp2321
sS'Irisy'
p2322
(dp2323
sS'Cactoonist'
p2324
(dp2325
sS'Muthu'
p2326
(dp2327
sS'CandlesSticks'
p2328
(dp2329
sS'CaitlynWerth'
p2330
(dp2331
sS'The%20person'
p2332
(dp2333
sS'DIFFERENTMiiNDS'
p2334
(dp2335
sS'JustPixie'
p2336
(dp2337
sS'Jende'
p2338
(dp2339
sS'January'
p2340
(dp2341
sS'Megskelli%20'
p2342
(dp2343
sS'FOA'
p2344
(dp2345
sS'Danyull'
p2346
(dp2347
sS'Taltri'
p2348
(dp2349
sS'spark'
p2350
(dp2351
sS'Kelebram'
p2352
(dp2353
sS'RubberHosed'
p2354
(dp2355
sS'Irma'
p2356
(dp2357
sS'redymedy'
p2358
(dp2359
sS'DewyBob12'
p2360
(dp2361
sS'Xchel%20shadyk'
p2362
(dp2363
sS'Doodleyfish'
p2364
(dp2365
sS'Inkedheart'
p2366
(dp2367
sS'berry'
p2368
(dp2369
sS'X_Ry'
p2370
(dp2371
sS'Kush'
p2372
(dp2373
sS'bekdemirdilara'
p2374
(dp2375
sS'jammee'
p2376
(dp2377
sS'Elias%20Has%20Arrived'
p2378
(dp2379
sS'Kuldaid'
p2380
(dp2381
sS'Noth'
p2382
(dp2383
sS'Sacha'
p2384
(dp2385
sS'SombresAngelicus'
p2386
(dp2387
sS'puppetmaster'
p2388
(dp2389
sS'Katinator'
p2390
(dp2391
sS'Stephs'
p2392
(dp2393
sS'assorted%20alvin'
p2394
(dp2395
sS'bigdickmystic'
p2396
(dp2397
sS'Akryna'
p2398
(dp2399
sS'Directograph'
p2400
(dp2401
sS'prototype'
p2402
(dp2403
sS'lovemachine'
p2404
(dp2405
sS'Ica'
p2406
(dp2407
sS'asdasda'
p2408
(dp2409
sS'calicomuse'
p2410
(dp2411
sS'Mochi%20Mochi'
p2412
(dp2413
sS'Nightingale9'
p2414
(dp2415
sS'IncreasingDepression'
p2416
(dp2417
sS'Zafiro%20'
p2418
(dp2419
sS'Jim%20Benton'
p2420
(dp2421
sS'Scararb'
p2422
(dp2423
sS'Murr'
p2424
(dp2425
sS'Vincent'
p2426
(dp2427
sS'Aen'
p2428
(dp2429
sS'Lyxi'
p2430
(dp2431
sS'Felina%20'
p2432
(dp2433
sS'Tkaoaii-artz'
p2434
(dp2435
sS'kuuzo'
p2436
(dp2437
sS'Skydronaut'
p2438
(dp2439
sS'Zipperino'
p2440
(dp2441
sS'HavHolly'
p2442
(dp2443
sS'paintingliele'
p2444
(dp2445
sS'Lauren'
p2446
(dp2447
sS'Mouthbrooder'
p2448
(dp2449
sS'WirelessConnection%20'
p2450
(dp2451
sS'Marheach'
p2452
(dp2453
sS'gaybish'
p2454
(dp2455
sS'LewisDan'
p2456
(dp2457
sS'Sprintmaster7'
p2458
(dp2459
sS'CraziBastid'
p2460
(dp2461
sS'Sworlix'
p2462
(dp2463
sS'Tragen'
p2464
(dp2465
sS'Syllabus'
p2466
(dp2467
sS'PlanetBAX'
p2468
(dp2469
sS'zelinoodles'
p2470
(dp2471
sS'Jolo'
p2472
(dp2473
sS'vino_artist'
p2474
(dp2475
sS'Bloooo'
p2476
(dp2477
sS'danielpark94'
p2478
(dp2479
sS'PsyBrainDroppings'
p2480
(dp2481
sS'ViliDoodl'
p2482
(dp2483
sS'@valecocoj'
p2484
(dp2485
sS'Zerodaydesigns'
p2486
(dp2487
sS'Laamore%20Vivid'
p2488
(dp2489
sS'Emilebup'
p2490
(dp2491
sS'Anna%20kostykina'
p2492
(dp2493
sS'Coyote'
p2494
(dp2495
sS'physical'
p2496
(dp2497
sS'Richy'
p2498
(dp2499
sS'RobotVsBird'
p2500
(dp2501
sS'monyatihayaa'
p2502
(dp2503
sS'Day.__.Doodles'
p2504
(dp2505
sS'RealSixtyFour'
p2506
(dp2507
sS'shibasquish'
p2508
(dp2509
sS'Complex%20Art%20DC'
p2510
(dp2511
sS'Aaron%20'
p2512
(dp2513
sS'Heya_Its_Sarah!'
p2514
(dp2515
sS'ayydarrshh'
p2516
(dp2517
sS'Desnightlighr'
p2518
(dp2519
sS'smollgrey%20'
p2520
(dp2521
sS'Hallie'
p2522
(dp2523
sS'Peanut%20Butta%20Prince'
p2524
(dp2525
sS'breezy'
p2526
(dp2527
sS'HiveMind'
p2528
(dp2529
sS'kurl0z'
p2530
(dp2531
sS'corvidia'
p2532
(dp2533
sS'saisai'
p2534
(dp2535
sS'Marshdpotatoes '
p2536
(dp2537
sS'If'
p2538
(dp2539
sS'@ve.cloudy'
p2540
(dp2541
sS'Keyani456'
p2542
(dp2543
sS'aqualizard'
p2544
(dp2545
sS'jean-luc'
p2546
(dp2547
sS'Jorge'
p2548
(dp2549
sS'Its_Creative_Bri'
p2550
(dp2551
sS'Kaytee'
p2552
(dp2553
sS'toby'
p2554
(dp2555
sS'hedfj'
p2556
(dp2557
sS'doodlecomet'
p2558
(dp2559
sS'@timothycrisis'
p2560
(dp2561
sS'Snitzfoam'
p2562
(dp2563
sS'Aika'
p2564
(dp2565
sS'Malex'
p2566
(dp2567
sS'DrawyMcDrawface'
p2568
(dp2569
sS'daddy%20long%20dicc'
p2570
(dp2571
sS'Nanith%20Omicron'
p2572
(dp2573
sS'Zack'
p2574
(dp2575
sS'Mimza'
p2576
(dp2577
sS'crianjess'
p2578
(dp2579
sS'Zweih%C3%A4nder '
p2580
(dp2581
sS'Baiduck'
p2582
(dp2583
sS'bloopy'
p2584
(dp2585
sS'kamitami'
p2586
(dp2587
sS'Enver'
p2588
(dp2589
sS'agon1093'
p2590
(dp2591
sS'Complex%20Art'
p2592
(dp2593
sS'jake'
p2594
(dp2595
sS'Dembzi'
p2596
(dp2597
sS'theorangepanda'
p2598
(dp2599
sS'Sneed%20'
p2600
(dp2601
sS'Denny'
p2602
(dp2603
sS'Grande'
p2604
(dp2605
sS'Beb0p'
p2606
(dp2607
sS'CareNoMore'
p2608
(dp2609
sS'JakiraJurosawa%20'
p2610
(dp2611
sS'Mangosteen'
p2612
(dp2613
sS'Freshade'
p2614
(dp2615
sS'666lizkim'
p2616
(dp2617
sS'JamesTok'
p2618
(dp2619
sS'QueenChronic'
p2620
(dp2621
sS'alinaresb'
p2622
(dp2623
sS'Juleefish%20'
p2624
(dp2625
sS'Sergio'
p2626
(dp2627
sS'Watashi%20wa%20kanashi'
p2628
(dp2629
sS'CaramelizedCats'
p2630
(dp2631
sS'Zeddio'
p2632
(dp2633
sS'Luckyveda'
p2634
(dp2635
sS'Something'
p2636
(dp2637
sS'txntaclefxcker'
p2638
(dp2639
sS'Alvina_Al'
p2640
(dp2641
sS'MatiJam'
p2642
(dp2643
sS'Tanstheskeleton'
p2644
(dp2645
sS'Sirius%20Solemn'
p2646
(dp2647
sS'Mara'
p2648
(dp2649
sS'Marc'
p2650
(dp2651
sS'Olaxis'
p2652
(dp2653
sS'Pavlova'
p2654
(dp2655
sS'Lou'
p2656
(dp2657
sS'Neb'
p2658
(dp2659
sS'ElaPyon'
p2660
(dp2661
sS'Greggunurb'
p2662
(dp2663
sS'Mark'
p2664
(dp2665
sS'Rosenburger'
p2666
(dp2667
sS'Master'
p2668
(dp2669
sS'Alex%20Wang'
p2670
(dp2671
sS'erematrushin'
p2672
(dp2673
sS'kingsyboi'
p2674
(dp2675
sS'MiYEET'
p2676
(dp2677
sS'Meg'
p2678
(dp2679
sS'Kazawarii'
p2680
(dp2681
sS'willis'
p2682
(dp2683
sS'Chello'
p2684
(dp2685
sS'TophatGeo'
p2686
(dp2687
sS'tenfour'
p2688
(dp2689
sS'DeadLockPursuit'
p2690
(dp2691
sS'Aleisha'
p2692
(dp2693
sS'Psychlogicalwormhole'
p2694
(dp2695
sS'Hikingsheepy'
p2696
(dp2697
sS'Tanvi'
p2698
(dp2699
sS'nooz'
p2700
(dp2701
sS'HeckinHeck'
p2702
(dp2703
sS'Stranger'
p2704
(dp2705
sS'finlay'
p2706
(dp2707
sS'Denkdevil'
p2708
(dp2709
sS'JimmymoP'
p2710
(dp2711
sS'Scumbrainz'
p2712
(dp2713
sS'Yushino'
p2714
(dp2715
sS'Signature'
p2716
(dp2717
sS'MeowBoi64'
p2718
(dp2719
sS'Beepadoobop'
p2720
(dp2721
sS'TribX'
p2722
(dp2723
sS'zhid%20ebuchy'
p2724
(dp2725
sS'Yunnitune'
p2726
(dp2727
sS'GenericRose'
p2728
(dp2729
sS'Geepeedee'
p2730
(dp2731
sS'BluePrime7777%20'
p2732
(dp2733
sS'Leigh'
p2734
(dp2735
sS'C-minded'
p2736
(dp2737
sS'slender'
p2738
(dp2739
sS'snakehead%20iman'
p2740
(dp2741
sS'4bidden_souls'
p2742
(dp2743
sS'OMG4LIFE'
p2744
(dp2745
sS'Noxient'
p2746
(dp2747
sS'Turpentinerfum'
p2748
(dp2749
sS'Rod%20Redpath'
p2750
(dp2751
sS'Mitchius'
p2752
(dp2753
sS'No'
p2754
(dp2755
sS'austeinwong25'
p2756
(dp2757
sS'ColTe'
p2758
(dp2759
sS'peachybeats'
p2760
(dp2761
sS'DonutOrca'
p2762
(dp2763
sS'Octo%20%F0%9F%90%99'
p2764
(dp2765
sS'cherryvanillawhore'
p2766
(dp2767
sS'Ada'
p2768
(dp2769
sS'Farooq'
p2770
(dp2771
sS'kuma_no-tsume'
p2772
(dp2773
sS'rzarosky'
p2774
(dp2775
sS'HardBLD'
p2776
(dp2777
sS'cata'
p2778
(dp2779
sS'Willgex'
p2780
(dp2781
sS'janinetynine'
p2782
(dp2783
sS'Sugarypepsi'
p2784
(dp2785
sS'Molly%20Ward'
p2786
(dp2787
sS'Jamie'
p2788
(dp2789
sS'daveisaverage'
p2790
(dp2791
sS'XEM1X'
p2792
(dp2793
sS'Mrdigdog'
p2794
(dp2795
sS'low'
p2796
(dp2797
sS'Eneyway'
p2798
(dp2799
sS'Sabrina'
p2800
(dp2801
sS'Taily'
p2802
(dp2803
sS'DotYourEyez'
p2804
(dp2805
sS'widowtyler'
p2806
(dp2807
sS'Nicology.berlin'
p2808
(dp2809
sS'ShonJohnTheArtist'
p2810
(dp2811
sS'Harri'
p2812
(dp2813
sS'RamonPlolo'
p2814
(dp2815
sS'Cre8tiveUwU'
p2816
(dp2817
sS'mmmarcus'
p2818
(dp2819
sS'Korduroy'
p2820
(dp2821
sS'DanzelWashInATon'
p2822
(dp2823
sS'keiishima'
p2824
(dp2825
sS'Markiegee55'
p2826
(dp2827
sS'Everyday_emily_'
p2828
(dp2829
sS'Sketchy%20Design'
p2830
(dp2831
sS'KevvoKreates'
p2832
(dp2833
sS'Haley'
p2834
(dp2835
sS'Mechaman'
p2836
(dp2837
sS'KixMix'
p2838
(dp2839
sS'jfalcon'
p2840
(dp2841
sS'Allors'
p2842
(dp2843
sS'Molliehopper'
p2844
(dp2845
sS'Ava'
p2846
(dp2847
sS'Tricordrazine'
p2848
(dp2849
sS'Fabiosrstm'
p2850
(dp2851
sS'Its_detergent'
p2852
(dp2853
sS'ojuKoratoJ'
p2854
(dp2855
sS'Skyequill'
p2856
(dp2857
sS'felix'
p2858
(dp2859
sS'Jemstone'
p2860
(dp2861
sS'adsa'
p2862
(dp2863
sS'Sozu'
p2864
(dp2865
sS'KazleHD'
p2866
(dp2867
sS'tttse'
p2868
(dp2869
sS'Anidiotwithart'
p2870
(dp2871
sS'Bc_artwork'
p2872
(dp2873
sS'LuckyKitsune'
p2874
(dp2875
sS'natsyart'
p2876
(dp2877
sS'Llamabro'
p2878
(dp2879
sS'DeadLockPursuit%20'
p2880
(dp2881
sS'Affybear'
p2882
(dp2883
sS'puppt'
p2884
(dp2885
sS'Natalia%20hates'
p2886
(dp2887
sS'iDrawOccasionally'
p2888
(dp2889
sS'lord_bazinga'
p2890
(dp2891
sS'CreepyFlower'
p2892
(dp2893
sS'polar'
p2894
(dp2895
sS'Alex'
p2896
(dp2897
sS'chemn'
p2898
(dp2899
sS'Qiusef'
p2900
(dp2901
sS'ooferman'
p2902
(dp2903
sS'Orrixo'
p2904
(dp2905
sS'EarlGreyKun'
p2906
(dp2907
sS'Milky'
p2908
(dp2909
sS'Reverse_brimstone'
p2910
(dp2911
sS'Ichrak%20'
p2912
(dp2913
sS'Tanja'
p2914
(dp2915
sS'Caity'
p2916
(dp2917
sS'Rendazzle%20'
p2918
(dp2919
sS'knights2022'
p2920
(dp2921
sS'PapiKrit'
p2922
(dp2923
sS'smooch'
p2924
(dp2925
sS'Bian'
p2926
(dp2927
sS'RWeaper'
p2928
(dp2929
sS'Hina%20the%20Meme-ma'
p2930
(dp2931
sS'Mondler'
p2932
(dp2933
sS'LeonardDak'
p2934
(dp2935
sS'Bri'
p2936
(dp2937
sS'TheSilentArtist'
p2938
(dp2939
sS'Yeshies'
p2940
(dp2941
sS'dystipiancomics'
p2942
(dp2943
sS'RivetingSArt%20'
p2944
(dp2945
sS'BizarreDev'
p2946
(dp2947
sS'HaileyS'
p2948
(dp2949
sS'alb'
p2950
(dp2951
sS'NoName'
p2952
(dp2953
sS'ElleseD'
p2954
(dp2955
sS'Droopy'
p2956
(dp2957
sS'Noor'
p2958
(dp2959
sS'@thewildlifecomic'
p2960
(dp2961
sS'Rian'
p2962
(dp2963
sS'jessie'
p2964
(dp2965
sS'griffin'
p2966
(dp2967
sS'SpawnDragon'
p2968
(dp2969
sS'Larpo'
p2970
(dp2971
sS'Evie'
p2972
(dp2973
sS'Ayoo'
p2974
(dp2975
sS'CherryJerry'
p2976
(dp2977
sS'LordMountbatten'
p2978
(dp2979
sS'hgjxdzjz'
p2980
(dp2981
sS'compsognathus'
p2982
(dp2983
sS'Naren'
p2984
(dp2985
sS'brianlucasgt'
p2986
(dp2987
sS'Briiiiiiii'
p2988
(dp2989
sS'AlbertDok'
p2990
(dp2991
sS'Sushi_Senpai'
p2992
(dp2993
sS'Diseko%20the%20artist%20'
p2994
(dp2995
sS'uwu'
p2996
(dp2997
sS'jeleb'
p2998
(dp2999
sS'NoPenta'
p3000
(dp3001
sS'Yyair_Raven'
p3002
(dp3003
sS'Gracesmall'
p3004
(dp3005
sS'mcourt'
p3006
(dp3007
sS'SushiWarlord'
p3008
(dp3009
sS'kitsubu'
p3010
(dp3011
sS'Noah'
p3012
(dp3013
sS'Tapeworms'
p3014
(dp3015
sS'Adam%20Rashid'
p3016
(dp3017
sS'CrimsonKnightX'
p3018
(dp3019
sS'Carla'
p3020
(dp3021
sS'Freezershadow51'
p3022
(dp3023
sS'Itnak'
p3024
(dp3025
sS'Cedarwonder'
p3026
(dp3027
sS'Alcpdlh'
p3028
(dp3029
sS'Fennec'
p3030
(dp3031
sS'SpaceMuse'
p3032
(dp3033
sS'Anaflavia123'
p3034
(dp3035
sS'Willow'
p3036
(dp3037
sS'HugeLoser'
p3038
(dp3039
sS'Ryleigh'
p3040
(dp3041
sS'Flawzite'
p3042
(dp3043
sS'Keyani'
p3044
(dp3045
sS'Joshuaculbertson'
p3046
(dp3047
sS'Ayrie'
p3048
(dp3049
sS'Cassthrashbash'
p3050
(dp3051
sS'honeybii'
p3052
(dp3053
sS'CantDraw'
p3054
(dp3055
sS'StormieWolfy'
p3056
(dp3057
sS'Zap%E2%80%99s%20Drawing'
p3058
(dp3059
sS'HollonArts'
p3060
(dp3061
sS'a%20mug'
p3062
(dp3063
sS'ievuska'
p3064
(dp3065
sS'ffff'
p3066
(dp3067
sS'Zurune'
p3068
(dp3069
sS'BrokenWatermelon'
p3070
(dp3071
sS'NebularMaze'
p3072
(dp3073
sS'abu'
p3074
(dp3075
sS'Pepsi'
p3076
(dp3077
sS'bags%20o%E2%80%99%20teeth'
p3078
(dp3079
sS'Southern Boulevard'
p3080
(dp3081
sS'Stick%20Senpai'
p3082
(dp3083
sS'ArtByAnaya'
p3084
(dp3085
sS'K'
p3086
(dp3087
sS'Zenkar'
p3088
(dp3089
sS'Cloudy'
p3090
(dp3091
sS'Pace%5BMr.7%5D'
p3092
(dp3093
sS'Greyghost32'
p3094
(dp3095
sS'DBCartoonist'
p3096
(dp3097
sS'Noi'
p3098
(dp3099
sS'ElegantHyenna'
p3100
(dp3101
sS'lionna'
p3102
(dp3103
sS'Tvking'
p3104
(dp3105
sS'Stripes_is_beautiful'
p3106
(dp3107
sS'Dennismab'
p3108
(dp3109
sS'FauxNom'
p3110
(dp3111
sS'Brummton'
p3112
(dp3113
sS'oxyd'
p3114
(dp3115
sS'Anupriya'
p3116
(dp3117
sS'luckyloomagu'
p3118
(dp3119
sS'Ilya'
p3120
(dp3121
sS'crumblesofreality'
p3122
(dp3123
sS'xemm'
p3124
(dp3125
sS'Logiccarsonst%20'
p3126
(dp3127
sS'Charlotte%20Dantelion'
p3128
(dp3129
sS'Jyke'
p3130
(dp3131
sS'moonanimator'
p3132
(dp3133
sS'ChrisSerket'
p3134
(dp3135
sS'Kathryntus'
p3136
(dp3137
sS'gost'
p3138
(dp3139
sS'Avesgallimore'
p3140
(dp3141
sS'Jean_38'
p3142
(dp3143
sS'Espresso'
p3144
(dp3145
sS'Kitchenpuppies'
p3146
(dp3147
sS'Mable'
p3148
(dp3149
sS'Weirdling'
p3150
(dp3151
sS'Alfiedphmdfk'
p3152
(dp3153
sS'Nicol'
p3154
(dp3155
sS'RomanianRandomGuy'
p3156
(dp3157
sS'bizk1'
p3158
(dp3159
sS'TemmieKat%20'
p3160
(dp3161
sS'Queen%20of%20fluff'
p3162
(dp3163
sS'rumioki'
p3164
(dp3165
sS'jggjhgjgjjugjghjglj'
p3166
(dp3167
sS'KaiserMuffn'
p3168
(dp3169
sS'shuumai'
p3170
(dp3171
sS'Tori%20'
p3172
(dp3173
sS'GodzillaMan'
p3174
(dp3175
sS'Bendilli'
p3176
(dp3177
sS'andrewgeorge'
p3178
(dp3179
sS'Aesthetic%20Bagel'
p3180
(dp3181
sS'JohnJohn%20'
p3182
(dp3183
sS'Jamio678'
p3184
(dp3185
sS'ninjanerd1001'
p3186
(dp3187
sS'jakedlambert'
p3188
(dp3189
sS'Ash%20:)'
p3190
(dp3191
sS'Bradoo22'
p3192
(dp3193
sS'ddddd'
p3194
(dp3195
sS'srverataro'
p3196
(dp3197
sS'Dhai%20'
p3198
(dp3199
sS'Denis%20Tahar'
p3200
(dp3201
sS'The%20scum%20of%20panels'
p3202
(dp3203
sS'SP1ND4'
p3204
(dp3205
sS'avenidaa'
p3206
(dp3207
sS'Arthness'
p3208
(dp3209
sS'Abraham.de_lacy'
p3210
(dp3211
sS'Hehe'
p3212
(dp3213
sS'SA'
p3214
(dp3215
sS'Killjoy'
p3216
(dp3217
sS'SD'
p3218
(dp3219
sS'Arianareese16'
p3220
(dp3221
sS'MichaelTar'
p3222
(dp3223
sS'Chimpu'
p3224
(dp3225
sS'Thunkee'
p3226
(dp3227
sS'digitalparadise89'
p3228
(dp3229
sS'freggline'
p3230
(dp3231
sS'Tortu'
p3232
(dp3233
sS'Caffeinecat'
p3234
(dp3235
sS'Kuma'
p3236
(dp3237
sS'Omkar'
p3238
(dp3239
sS'jashgasher'
p3240
(dp3241
sS'Derrgin'
p3242
(dp3243
sS'Dizastrophe'
p3244
(dp3245
sS'topgamer'
p3246
(dp3247
sS'CreativeGhost%20'
p3248
(dp3249
sS'665issues'
p3250
(dp3251
sS'hugo'
p3252
(dp3253
sS'InvaderChie'
p3254
(dp3255
sS'Drawqwert'
p3256
(dp3257
sS'batterfries'
p3258
(dp3259
sS'TheEmptyVoid'
p3260
(dp3261
sS'Vsauce'
p3262
(dp3263
sS'Focal'
p3264
(dp3265
sS'100rabh.nigam'
p3266
(dp3267
sS'sprinkle'
p3268
(dp3269
sS'givemethepeasnow'
p3270
(dp3271
sS'epic6'
p3272
(dp3273
sS'Benji'
p3274
(dp3275
sS'XxSCJxX'
p3276
(dp3277
sS'HappyTheArtist'
p3278
(dp3279
sS'Mireille%20'
p3280
(dp3281
sS'Hailey%20'
p3282
(dp3283
sS'Yurpy_derpy'
p3284
(dp3285
sS'Nai-Nai'
p3286
(dp3287
sS'Declan'
p3288
(dp3289
sS'PolleyK'
p3290
(dp3291
sS'T-draws3130'
p3292
(dp3293
sS'asdasd%20asdasd'
p3294
(dp3295
sS'Blairdraw'
p3296
(dp3297
sS'gothamsfinest'
p3298
(dp3299
sS'FeelGoodMel'
p3300
(dp3301
sS'Takara.Customs'
p3302
(dp3303
sS'Deej'
p3304
(dp3305
sS'Sean'
p3306
(dp3307
sS'MobileKomika'
p3308
(dp3309
sS'egg'
p3310
(dp3311
sS'spacefoxigirl7'
p3312
(dp3313
sS'amiliyazarip'
p3314
(dp3315
sS'acesart.io'
p3316
(dp3317
sS'Durren'
p3318
(dp3319
sS'Texan'
p3320
(dp3321
sS'gusfrehse'
p3322
(dp3323
sS'Angie%20Rai'
p3324
(dp3325
sS'hannaart'
p3326
(dp3327
sS'Artymax'
p3328
(dp3329
sS'@hysterical.limes'
p3330
(dp3331
sS'Miuki'
p3332
(dp3333
sS'Adrianincup'
p3334
(dp3335
sS'Ducksinmahbooks'
p3336
(dp3337
sS'Gujiu'
p3338
(dp3339
sS'owlsketch'
p3340
(dp3341
sS'Carol%20Gigliotti'
p3342
(dp3343
sS'Eekcarlos'
p3344
(dp3345
sS'Klee'
p3346
(dp3347
sS'Enya'
p3348
(dp3349
sS'perry%20biblethumper'
p3350
(dp3351
sS'VaandaaM'
p3352
(dp3353
sS'ikawaiiunicorn%20'
p3354
(dp3355
sS'Karry%20Terry'
p3356
(dp3357
sS'chistoso'
p3358
(dp3359
sS'MiniMoe'
p3360
(dp3361
sS'droid.on.roids'
p3362
(dp3363
sS'Origami Owl'
p3364
(dp3365
sS'sayarkototoru'
p3366
(dp3367
sS'Sabbekaes'
p3368
(dp3369
sS'%F0%9F%94%A5Infernal%20Nathaniel%F0%9F%94%A5'
p3370
(dp3371
sS'Strainer%20Joe'
p3372
(dp3373
sS'Moose-Chan'
p3374
(dp3375
sS'Michael'
p3376
(dp3377
sS'Metallia'
p3378
(dp3379
sS'Thatisdifficult'
p3380
(dp3381
sS'Hannaxart'
p3382
(dp3383
sS'Tavi'
p3384
(dp3385
sS'Traphesty'
p3386
(dp3387
sS':I'
p3388
(dp3389
sS'p56.'
p3390
(dp3391
sS'MJW_Creations'
p3392
(dp3393
sS'Bigboysmokey'
p3394
(dp3395
sS'Elliot'
p3396
(dp3397
sS'Savannah'
p3398
(dp3399
sS'Irinaoxist'
p3400
(dp3401
sS'Rat'
p3402
(dp3403
sS'ColonelSanders'
p3404
(dp3405
sS'SixtyFour'
p3406
(dp3407
sS'Inksomboop'
p3408
(dp3409
sS'Ray'
p3410
(dp3411
sS'thebeansack'
p3412
(dp3413
sS'Ramora'
p3414
(dp3415
sS'NurseKae'
p3416
(dp3417
sS'Rose'
p3418
(dp3419
sS'RockAngel'
p3420
(dp3421
sS'Ellokids'
p3422
(dp3423
sS'MDucko'
p3424
(dp3425
sS'Tylerforhire'
p3426
(dp3427
sS'wolversheens'
p3428
(dp3429
sS'VexJoe'
p3430
(dp3431
sS'KingKup'
p3432
(dp3433
sS'Nyan%20Pandacorn'
p3434
(dp3435
sS'XTinaSolstice'
p3436
(dp3437
sS'Mr%20Carl%20R%20Muircroft'
p3438
(dp3439
sS'Samuel'
p3440
(dp3441
sS'marina'
p3442
(dp3443
sS'Theri3%20'
p3444
(dp3445
sS'Oppen%20Poppen'
p3446
(dp3447
sS'Doob'
p3448
(dp3449
sS'Kaeley'
p3450
(dp3451
sS'Zinco'
p3452
(dp3453
sS'Jana%20Farka%C5%A1'
p3454
(dp3455
sS'alisthela'
p3456
(dp3457
sS'Sketchy Design'
p3458
(dp3459
sS'Jaster'
p3460
(dp3461
sS'Bryce%20Duyvewaardt'
p3462
(dp3463
sS'Rosalynn'
p3464
(dp3465
sS'RoroTwix'
p3466
(dp3467
sS'TalmodighedPaneljam'
p3468
(dp3469
sS'Nina'
p3470
(dp3471
sS'asa'
p3472
(dp3473
sS'cutepichu'
p3474
(dp3475
sS'rotifer'
p3476
(dp3477
sS'RobertVoday'
p3478
(dp3479
sS'ET'
p3480
(dp3481
sS'rikke'
p3482
(dp3483
sS'Delete'
p3484
(dp3485
sS'CuervoRenard'
p3486
(dp3487
sS'CraigKig'
p3488
(dp3489
sS'AshlynnHyman'
p3490
(dp3491
sS'Rokompol_jackosaurus'
p3492
(dp3493
sS'Kayou'
p3494
(dp3495
sS'Rachelle'
p3496
(dp3497
sS'pepperedpats'
p3498
(dp3499
sS'YHelloThere'
p3500
(dp3501
sS'AliciaVarela'
p3502
(dp3503
sS'XotenTrinity34'
p3504
(dp3505
sS'LuffySaysGayRights'
p3506
(dp3507
sS'Vanish'
p3508
(dp3509
sS'Septie'
p3510
(dp3511
sS'Sir%20Artlee'
p3512
(dp3513
sS'squigglens'
p3514
(dp3515
sS'PanicAtTheLife'
p3516
(dp3517
sS'dink'
p3518
(dp3519
sS'Kratika%20'
p3520
(dp3521
sS'MCBURGERFLIPER'
p3522
(dp3523
sS'Axel'
p3524
(dp3525
sS'Derri'
p3526
(dp3527
sS'payure'
p3528
(dp3529
sS'infinite'
p3530
(dp3531
sS'Beezee'
p3532
(dp3533
sS'Cosmo'
p3534
(dp3535
sS'Sparky%20Ryan%20Howard'
p3536
(dp3537
sS'GregoryAlexanderTome'
p3538
(dp3539
sS'kire'
p3540
(dp3541
sS'DrooodleMew'
p3542
(dp3543
sS'TOSpadez'
p3544
(dp3545
sS'Queen%20Of%20Trash'
p3546
(dp3547
sS'Zurcan'
p3548
(dp3549
sS'BTCNum'
p3550
(dp3551
sS'ansloid'
p3552
(dp3553
sS'SorbetSosara'
p3554
(dp3555
sS'Spagholi'
p3556
(dp3557
sS'comarovanely'
p3558
(dp3559
sS'CrazyCreature'
p3560
(dp3561
sS'Munia'
p3562
(dp3563
sS'Redghost368'
p3564
(dp3565
sS'Charliehowe'
p3566
(dp3567
sS'Moomoo'
p3568
(dp3569
sS'LunaDolphin022'
p3570
(dp3571
sS'boredom'
p3572
(dp3573
sS'Maneloki'
p3574
(dp3575
sS'grace'
p3576
(dp3577
sS'Nordic%20Hamfist'
p3578
(dp3579
sS'bethies'
p3580
(dp3581
sS'Einnselfband'
p3582
(dp3583
sS'bedgrammar'
p3584
(dp3585
sS'Mahtab'
p3586
(dp3587
sS'Rad_Attraction'
p3588
(dp3589
sS'BareHandeDragon'
p3590
(dp3591
sS'Going4Pensive%20'
p3592
(dp3593
sS'Jarvis'
p3594
(dp3595
sS'Indyryan'
p3596
(dp3597
sS'Simply_Kali'
p3598
(dp3599
sS'Scrubby'
p3600
(dp3601
sS'charlotte'
p3602
(dp3603
sS'dona.'
p3604
(dp3605
sS'Skinsink'
p3606
(dp3607
sS'vanes'
p3608
(dp3609
sS'God'
p3610
(dp3611
sS'SellyVonCarstein'
p3612
(dp3613
sS'philippine'
p3614
(dp3615
sS'DestinyTheDemon'
p3616
(dp3617
sS'zircbirb'
p3618
(dp3619
sS'Mr.Gorewhore'
p3620
(dp3621
sS'StrongLocke'
p3622
(dp3623
sS'sarah%20b%20polly'
p3624
(dp3625
sS'Le%20Mistuer'
p3626
(dp3627
sS'KatBOOO'
p3628
(dp3629
sS'SPDYJMPR1910'
p3630
(dp3631
sS'maddidoesnotexist'
p3632
(dp3633
sS'Meowdle'
p3634
(dp3635
sS'Hannah'
p3636
(dp3637
sS'Ponyboy.shenpai'
p3638
(dp3639
sS'ConCave'
p3640
(dp3641
sS'miah'
p3642
(dp3643
sS'Sho-bo'
p3644
(dp3645
sS'REIMEMONSTER'
p3646
(dp3647
sS'Ryann'
p3648
(dp3649
sS'Kim'
p3650
(dp3651
sS'art%20worker'
p3652
(dp3653
sS'The%20Dorky%20Queen%20%F0%9F%91%91'
p3654
(dp3655
sS'Spirit'
p3656
(dp3657
sS'Melissa.tic'
p3658
(dp3659
sS'tiniest_punk'
p3660
(dp3661
sS'TallFrodo'
p3662
(dp3663
sS'Admin'
p3664
(dp3665
sS'Cecilyrose'
p3666
(dp3667
sS'blinkin'
p3668
(dp3669
sS'Sezia'
p3670
(dp3671
sS'Caleb_brah%20'
p3672
(dp3673
sS'Coffee.world'
p3674
(dp3675
sS'Vulcairr'
p3676
(dp3677
sS'Curtis14'
p3678
(dp3679
sS'AmonmonaCax'
p3680
(dp3681
sS'The'
p3682
(dp3683
sS'AdenFlorian'
p3684
(dp3685
sS'GTP'
p3686
(dp3687
sS'Augustina'
p3688
(dp3689
sS'JamesNuash'
p3690
(dp3691
sS'Transcendent%20trash'
p3692
(dp3693
sS'Sgore'
p3694
(dp3695
sS'tamarabonny'
p3696
(dp3697
sS'0823455199'
p3698
(dp3699
sS'J TEA the artist'
p3700
(dp3701
sS'KyleM'
p3702
(dp3703
sS'azimuth'
p3704
(dp3705
sS'brokencompass'
p3706
(dp3707
sS'Robinson'
p3708
(dp3709
sS'kahtahai'
p3710
(dp3711
sS'kiraduhovnay'
p3712
(dp3713
sS'Gracie'
p3714
(dp3715
sS'Karli'
p3716
(dp3717
sS'%5E-%5EHappyHurricane%5E-%5E'
p3718
(dp3719
sS'Quite_the_Gal'
p3720
(dp3721
sS'Danger%20Schade'
p3722
(dp3723
sS'Panka'
p3724
(dp3725
sS'KatrinaW'
p3726
(dp3727
sS'Sam%20I%20am%20'
p3728
(dp3729
sS'StrafeMalone'
p3730
(dp3731
sS'Slimetek'
p3732
(dp3733
sS'Jumbos'
p3734
(dp3735
sS'Spicy'
p3736
(dp3737
sS'ZanesArt'
p3738
(dp3739
sS'Oppen.Poppen'
p3740
(dp3741
sS'Oro'
p3742
(dp3743
sS'Jamesanell'
p3744
(dp3745
sS'Kaitlyn'
p3746
(dp3747
sS'GregHeffley'
p3748
(dp3749
sS'aterlamia'
p3750
(dp3751
sS'olyaniuktova'
p3752
(dp3753
sS'ninasemova'
p3754
(dp3755
sS'Icepixie'
p3756
(dp3757
sS'Libby'
p3758
(dp3759
sS'Askmepl'
p3760
(dp3761
sS'TroubleGun'
p3762
(dp3763
sS'triangle'
p3764
(dp3765
sS'TekoMuto'
p3766
(dp3767
sS'Kirishie'
p3768
(dp3769
sS'hydraDut'
p3770
(dp3771
sS'sunny'
p3772
(dp3773
sS'Roszhelia%20'
p3774
(dp3775
sS'Niskoshi'
p3776
(dp3777
sS'Josiethecreator'
p3778
(dp3779
sS'Pizza%20role'
p3780
(dp3781
sS'Ting%20ting'
p3782
(dp3783
sS'Wameirrelve'
p3784
(dp3785
sS'Abdallah'
p3786
(dp3787
sS'rawtomic'
p3788
(dp3789
sS'Salma'
p3790
(dp3791
sS'DennisGeale'
p3792
(dp3793
sS'@Drawing._.KartistJ'
p3794
(dp3795
sS'@HideNGoShauna'
p3796
(dp3797
sS'piterBer'
p3798
(dp3799
sS'Furozoa'
p3800
(dp3801
sS'Chickennuggetnev'
p3802
(dp3803
sS'Eggo%20;0'
p3804
(dp3805
sS'Kitty232'
p3806
(dp3807
sS'Snafflee'
p3808
(dp3809
sS'Polijin'
p3810
(dp3811
sS'EnvyWithers'
p3812
(dp3813
sS'Kanra'
p3814
(dp3815
sS'Yurpyderpy'
p3816
(dp3817
sS'Darcinatoryeets'
p3818
(dp3819
sS'Captain%20Fetus'
p3820
(dp3821
sS'Strnt%20Boopo'
p3822
(dp3823
sS'Krish'
p3824
(dp3825
sS'Bite%20Size%20Comics%20'
p3826
(dp3827
sS'Cowguano%20'
p3828
(dp3829
sS'Akikomee'
p3830
(dp3831
sS'Crayonz'
p3832
(dp3833
sS'BeckyBlue'
p3834
(dp3835
sS'Kaden'
p3836
(dp3837
sS'AppleYogurt'
p3838
(dp3839
sS'BingoTheDino'
p3840
(dp3841
sS'Ena'
p3842
(dp3843
sS'TheJuiceBox'
p3844
(dp3845
sS'Isaiah'
p3846
(dp3847
sS'Marla'
p3848
(dp3849
sS'Shloeme'
p3850
(dp3851
sS'Viva'
p3852
(dp3853
sS'ACupofTeaCaff'
p3854
(dp3855
sS'Tinuke'
p3856
(dp3857
sS'Williamingem'
p3858
(dp3859
sS'delaiah_'
p3860
(dp3861
sS'raycomics%20'
p3862
(dp3863
sS'Dani'
p3864
(dp3865
sS'Qomicsensei'
p3866
(dp3867
sS'QPcG'
p3868
(dp3869
sS'paisleyheart'
p3870
(dp3871
sS'kurocartoonist'
p3872
(dp3873
sS'Marshmallowyay'
p3874
(dp3875
sS'vdxbv'
p3876
(dp3877
sS'3d%20interior%20designer'
p3878
(dp3879
sS'Elepheel'
p3880
(dp3881
sS'Greenfish'
p3882
(dp3883
sS'Apotato22'
p3884
(dp3885
sS'lemonfrogcomics'
p3886
(dp3887
sS'fvf'
p3888
(dp3889
sS'WillM.'
p3890
(dp3891
sS'Graham'
p3892
(dp3893
sS'Kat%20'
p3894
(dp3895
sS'qewweawgweg'
p3896
(dp3897
sS'Aunt%20Nemi'
p3898
(dp3899
sS'PokeMom47'
p3900
(dp3901
sS'Dedrick'
p3902
(dp3903
sS'Izzaro'
p3904
(dp3905
sS'The Green Flame'
p3906
(dp3907
sS'idunno'
p3908
(dp3909
sS'pastellpink'
p3910
(dp3911
sS'KaraMong'
p3912
(dp3913
sS'crisps'
p3914
(dp3915
sS'scrunchmew%20'
p3916
(dp3917
sS'Pupsicle'
p3918
(dp3919
sS'Willie'
p3920
(dp3921
sS'asdf'
p3922
(dp3923
sS'SoggyChomp'
p3924
(dp3925
sS'Porororo'
p3926
(dp3927
sS'Mon%20Le%C3%B3n%20'
p3928
(dp3929
sS'Alcpdh'
p3930
(dp3931
sS'Maxel%20'
p3932
(dp3933
sS'Rink37'
p3934
(dp3935
sS'G.n.'
p3936
(dp3937
sS'Penis'
p3938
(dp3939
sS'Cutila-Mun'
p3940
(dp3941
sS'Villosite'
p3942
(dp3943
sS'rugelach'
p3944
(dp3945
sS'Willa_vanilla_'
p3946
(dp3947
sS'moonyfang%20'
p3948
(dp3949
sS'Yangstablook'
p3950
(dp3951
sS'spookyguyfieri'
p3952
(dp3953
sS'PintoBean'
p3954
(dp3955
sS'%20ghli'
p3956
(dp3957
sS'MetalBird'
p3958
(dp3959
sS'lej.ah'
p3960
(dp3961
sS'lb.visual'
p3962
(dp3963
sS'LT%20savage'
p3964
(dp3965
sS'itachi'
p3966
(dp3967
sS'Krabb'
p3968
(dp3969
sS'Mascay'
p3970
(dp3971
sS'lukebuzzkill'
p3972
(dp3973
sS'Franniferr'
p3974
(dp3975
sS'NoOriginalThought'
p3976
(dp3977
sS'juice'
p3978
(dp3979
sS'Dino'
p3980
(dp3981
sS'Oli'
p3982
(dp3983
sS'daniel%20dailey'
p3984
(dp3985
sS'Pokerface'
p3986
(dp3987
sS'hollycutts'
p3988
(dp3989
sS'masterblaster'
p3990
(dp3991
sS'Art_by_gay'
p3992
(dp3993
sS'Merkle'
p3994
(dp3995
sS'raining%20pedals'
p3996
(dp3997
sS'ross'
p3998
(dp3999
sS'BloodArt'
p4000
(dp4001
sS'HannyLion'
p4002
(dp4003
sS'Shayne%20Edson'
p4004
(dp4005
sS'FairlyDoubtless'
p4006
(dp4007
sS'MeridianWaves'
p4008
(dp4009
sS'Oakley'
p4010
(dp4011
sS'Sksksksksksk'
p4012
(dp4013
sS'Tim'
p4014
(dp4015
sS'joshyouart'
p4016
(dp4017
sS'Mikki'
p4018
(dp4019
sS'Stray_dog'
p4020
(dp4021
sS'Salenti'
p4022
(dp4023
sS'FlannelMexican'
p4024
(dp4025
sS'Just%20Alex'
p4026
(dp4027
sS'Estherelarm'
p4028
(dp4029
sS'dingading'
p4030
(dp4031
sS'Yourgoodfriend'
p4032
(dp4033
sS'Thalia'
p4034
(dp4035
sS'BrumpoTungus'
p4036
(dp4037
sS'SoloDust'
p4038
(dp4039
sS'Classicsarajcomics'
p4040
(dp4041
sS'Dirahbrigade'
p4042
(dp4043
sS'izzy.alive'
p4044
(dp4045
sS'gwenymlo'
p4046
(dp4047
sS'Charlotte Dantelion'
p4048
(dp4049
sS'OscarF'
p4050
(dp4051
sS'fatty'
p4052
(dp4053
sS'Apotato222'
p4054
(dp4055
sS'Plowpow'
p4056
(dp4057
sS'RachelS'
p4058
(dp4059
sS'quintinisntworthit'
p4060
(dp4061
sS'TheNameless'
p4062
(dp4063
sS'rockinashy'
p4064
(dp4065
sS'SellOut267'
p4066
(dp4067
sS'Boom4011'
p4068
(dp4069
sS'irenaklenovv'
p4070
(dp4071
sS'rsrgs'
p4072
(dp4073
sS'chinchin'
p4074
(dp4075
sS'Eddie%20Treez'
p4076
(dp4077
sS'PING'
p4078
(dp4079
sS'Sol'
p4080
(dp4081
sS'SomeCallMeAsh'
p4082
(dp4083
sS'hpkomic'
p4084
(dp4085
sS'katze'
p4086
(dp4087
sS'Kara'
p4088
(dp4089
sS'Fevinart'
p4090
(dp4091
sS'PremiumChunkArt'
p4092
(dp4093
sS'chelsea_sayswhat'
p4094
(dp4095
sS'skailer'
p4096
(dp4097
sS'Pilkat'
p4098
(dp4099
sS'Zephix_'
p4100
(dp4101
sS'AraTheWeirdo'
p4102
(dp4103
sS'Creative_avery%20'
p4104
(dp4105
sS'Penelopezzz'
p4106
(dp4107
sS'Kiernan'
p4108
(dp4109
sS'Drawception guy'
p4110
(dp4111
sS'Shee_draws'
p4112
(dp4113
sS'Atobis'
p4114
(dp4115
sS'surphy'
p4116
(dp4117
sS'Moetaz%20Soliman'
p4118
(dp4119
sS'daisy%20key%20chain'
p4120
(dp4121
sS'uluckybastard'
p4122
(dp4123
sS'kingsy'
p4124
(dp4125
sS'yashoclock'
p4126
(dp4127
sS'gigazarak'
p4128
(dp4129
sS'matteo2180'
p4130
(dp4131
sS'SenpaiSketch'
p4132
(dp4133
sS'Christacee'
p4134
(dp4135
sS'Juleefish '
p4136
(dp4137
sS'GodzillaMan1234'
p4138
(dp4139
sS'Anobiii'
p4140
(dp4141
sS'kirubeep'
p4142
(dp4143
sS'Laikaboss'
p4144
(dp4145
sS'fa99les'
p4146
(dp4147
sS'kittypuff'
p4148
(dp4149
sS'zacktraversy'
p4150
(dp4151
sS'NotAnArtist'
p4152
(dp4153
sS'Hab%20Oh'
p4154
(dp4155
sS'QUINN%20EUQIM%20'
p4156
(dp4157
sS'Shortcrusted'
p4158
(dp4159
sS'Augustina%20kumado'
p4160
(dp4161
sS'Mr.Jack'
p4162
(dp4163
sS'Reina.exe'
p4164
(dp4165
sS'mimikyu2467'
p4166
(dp4167
sS'qwq'
p4168
(dp4169
sS'mi52wn'
p4170
(dp4171
sS'DogSydrome'
p4172
(dp4173
sS'Kenny'
p4174
(dp4175
sS'SodapopSnail'
p4176
(dp4177
sS'Alex%20Getts'
p4178
(dp4179
sS'eet'
p4180
(dp4181
sS'FUCKFACE%20VON%20ASSHOLE'
p4182
(dp4183
sS'mrtncthrn'
p4184
(dp4185
sS'%20cj'
p4186
(dp4187
sS'Liv345'
p4188
(dp4189
sS'Gr1m21G0ld'
p4190
(dp4191
sS'Fruti_pebbles'
p4192
(dp4193
sS'maaknovskaya'
p4194
(dp4195
sS'Squishy'
p4196
(dp4197
sS'@byboaz'
p4198
(dp4199
sS'Potato%20'
p4200
(dp4201
sS'xvplexx'
p4202
(dp4203
sS'LlamaArtistss'
p4204
(dp4205
sS'Caroldyeno'
p4206
(dp4207
sS'ridgewalden'
p4208
(dp4209
sS'Afrizal'
p4210
(dp4211
sS'Bolot'
p4212
(dp4213
sS'Im%20unknown'
p4214
(dp4215
sS'Tyson%20Turnpike'
p4216
(dp4217
sS'CondescendingWow'
p4218
(dp4219
sS'Andy'
p4220
(dp4221
sS'manuel%20fm'
p4222
(dp4223
sS'Giulis'
p4224
(dp4225
sS'Maddy123321123'
p4226
(dp4227
sS'Thy'
p4228
(dp4229
sS'spacewabbit'
p4230
(dp4231
sS'Redspandaart'
p4232
(dp4233
sS'Frank'
p4234
(dp4235
sS'Anna%20Waite%20the%20Gr8'
p4236
(dp4237
sS'Robospunk%20'
p4238
(dp4239
sS'Masterboog'
p4240
(dp4241
sS'CorynMorrisson'
p4242
(dp4243
sS'lorraine'
p4244
(dp4245
sS'Mariela%20'
p4246
(dp4247
sS'claw33'
p4248
(dp4249
sS'AustenAG'
p4250
(dp4251
sS'aliciamerry'
p4252
(dp4253
sS'NudistPeach'
p4254
(dp4255
sS'Lesingefou'
p4256
(dp4257
sS'Brainsquid'
p4258
(dp4259
sS'Pineapple_Confetfi'
p4260
(dp4261
sS'Taylor.sorensen'
p4262
(dp4263
sS'tttse2'
p4264
(dp4265
sS'coolleg'
p4266
(dp4267
sS'mondofish'
p4268
(dp4269
sS'Asthc_art'
p4270
(dp4271
sS'Bob'
p4272
(dp4273
sS'PitaJam'
p4274
(dp4275
sS'venemint'
p4276
(dp4277
sS'Satanfarts'
p4278
(dp4279
sS'bitesizedbits'
p4280
(dp4281
sS'my_names_kili'
p4282
(dp4283
sS'gayeunuch'
p4284
(dp4285
sS'Monddes'
p4286
(dp4287
sS'Taylor'
p4288
(dp4289
sS'Mushroom4life%F0%9F%8D%84%F0%9F%8D%84%F0%9F%8D%84%F0%9F%8D%84%F0%9F%8D%84%F0%9F%8D%84%F0%9F%8D%84'
p4290
(dp4291
sS'Suki-chan'
p4292
(dp4293
sS'Firebreak_2'
p4294
(dp4295
sS'BlackVelvetJelly'
p4296
(dp4297
sS'LeyZ'
p4298
(dp4299
sS'Camillechame'
p4300
(dp4301
sS'firelord'
p4302
(dp4303
sS'Rogu'
p4304
(dp4305
sS'step2mii'
p4306
(dp4307
sS'WilliamKic'
p4308
(dp4309
sS'JayDork19'
p4310
(dp4311
sS'Amyduck'
p4312
(dp4313
sS'lukepisani'
p4314
(dp4315
sS'absolute-jackass%20'
p4316
(dp4317
sS'AM_wizard_shithead'
p4318
(dp4319
sS'The_Silent_Artist'
p4320
(dp4321
sS'Dust%20and%20Whiskey'
p4322
(dp4323
sS'69BananaSenpai69'
p4324
(dp4325
sS'Skedoodle'
p4326
(dp4327
sS'St%20Anger'
p4328
(dp4329
sS'Re_interpreted'
p4330
(dp4331
sS'mirabees'
p4332
(dp4333
sS'Sp%C3%A6ngbobk'
p4334
(dp4335
sS'TheExcellentBlob'
p4336
(dp4337
sS'superstar_pixie'
p4338
(dp4339
sS'Viltis'
p4340
(dp4341
sS'Sleep_that_akflyguy%20'
p4342
(dp4343
sS'Kitty'
p4344
(dp4345
sS'sksksksk'
p4346
(dp4347
sS'Kapes'
p4348
(dp4349
sS'Nilo%20Art'
p4350
(dp4351
sS'Supergamer14'
p4352
(dp4353
sS'Pika_Chu'
p4354
(dp4355
sS'Sweet_Little_Loli'
p4356
(dp4357
sS'BirdSamurai'
p4358
(dp4359
sS'nyuurpopovaa'
p4360
(dp4361
sS'partyee'
p4362
(dp4363
sS'Ayoob'
p4364
(dp4365
sS'Adrian'
p4366
(dp4367
sS'TARO'
p4368
(dp4369
sS'Yandere_lauren_uwu'
p4370
(dp4371
sS'Austin'
p4372
(dp4373
sS'Nonexistent%20'
p4374
(dp4375
sS'fadeu'
p4376
(dp4377
sS'Elvirasartdump'
p4378
(dp4379
sS'swebdev'
p4380
(dp4381
sS'Sazhimi'
p4382
(dp4383
sS'Darkstarr22'
p4384
(dp4385
sS'jelena'
p4386
(dp4387
sS'Soor'
p4388
(dp4389
sS'Elvio%20Lador'
p4390
(dp4391
sS'Mignon'
p4392
(dp4393
sS'olivialust'
p4394
(dp4395
sS'Limon%20baby'
p4396
(dp4397
sS'MatthewPap'
p4398
(dp4399
sS'AddisteRoto'
p4400
(dp4401
sS'ObsessiveCompulsive'
p4402
(dp4403
sS'Isukaru'
p4404
(dp4405
sS'Grace%20'
p4406
(dp4407
sS'Artbyjenx'
p4408
(dp4409
sS'Splorngie'
p4410
(dp4411
sS'Sodamom'
p4412
(dp4413
sS'Lordestur'
p4414
(dp4415
sS'Sierra'
p4416
(dp4417
sS'Mr.Drawperson'
p4418
(dp4419
sS'Rikkz'
p4420
(dp4421
sS'YaBoiiHarambe'
p4422
(dp4423
sS'zoeinfp'
p4424
(dp4425
sS'badlydrawnboxes'
p4426
(dp4427
sS'Tendscha'
p4428
(dp4429
sS'Mary'
p4430
(dp4431
sS'Cataz'
p4432
(dp4433
sS'Someone_drawing'
p4434
(dp4435
sS'Proxy'
p4436
(dp4437
sS'Mandrillcomics2'
p4438
(dp4439
sS'Doodlendrawmn'
p4440
(dp4441
sS'SashkaRSolw'
p4442
(dp4443
sS'AC'
p4444
(dp4445
sS'HKNC3'
p4446
(dp4447
sS'Hostia'
p4448
(dp4449
sS'Fedor'
p4450
(dp4451
sS'peepeeman'
p4452
(dp4453
sS'heridon'
p4454
(dp4455
sS'ekeke'
p4456
(dp4457
sS'T33NDRUGZ'
p4458
(dp4459
sS'sanprisso'
p4460
(dp4461
sS'Cindy'
p4462
(dp4463
sS'Coco'
p4464
(dp4465
sS'Himanshu%20Dutt'
p4466
(dp4467
sS'Sifartist'
p4468
(dp4469
sS'Wafflo'
p4470
(dp4471
sS'Tiredbaguette'
p4472
(dp4473
sS'KevinQuota'
p4474
(dp4475
sS'OORLOG'
p4476
(dp4477
sS'Al'
p4478
(dp4479
sS'Zemoore'
p4480
(dp4481
sS'Alice%20Grunkle'
p4482
(dp4483
sS'slenderisafreak'
p4484
(dp4485
sS'LetyDrupay'
p4486
(dp4487
sS'ReeseBRITTON'
p4488
(dp4489
sS'Raennii'
p4490
(dp4491
sS'Rabdit0516'
p4492
(dp4493
sS'Jim'
p4494
(dp4495
sS'Ash'
p4496
(dp4497
sS'Jilli.finch'
p4498
(dp4499
sS'Ashez'
p4500
(dp4501
sS'Lara'
p4502
(dp4503
sS'TheBoneZoneDeluxe'
p4504
(dp4505
sS'izzy'
p4506
(dp4507
sS'Toomster'
p4508
(dp4509
sS'Sambeet'
p4510
(dp4511
sS'Dino3100'
p4512
(dp4513
sS'chimchimtim'
p4514
(dp4515
sS'Fenrer'
p4516
(dp4517
sS'LillFritte'
p4518
(dp4519
sS'Prometheish'
p4520
(dp4521
sS'Drawception%20guy'
p4522
(dp4523
sS'EagleLand'
p4524
(dp4525
sS'vianey'
p4526
(dp4527
sS'Hannah%20Jayne%20'
p4528
(dp4529
sS'buddha'
p4530
(dp4531
sS'Enivilla'
p4532
(dp4533
sS'Lazy_anime_Geek'
p4534
(dp4535
sS'SoopDuck'
p4536
(dp4537
sS'Wietse'
p4538
(dp4539
sS'hanamorphic'
p4540
(dp4541
sS'sage'
p4542
(dp4543
sS'Art_fox'
p4544
(dp4545
sS'AllisonAndSusie'
p4546
(dp4547
sS'belyanskaiao'
p4548
(dp4549
sS'velvetblue'
p4550
(dp4551
sS'Mosobot64'
p4552
(dp4553
sS'uf0gh0st'
p4554
(dp4555
sS'Rice4ever'
p4556
(dp4557
sS'Rabbit.fodder'
p4558
(dp4559
sS'M%20RHIIIIIIDLEY'
p4560
(dp4561
sS'bananageek'
p4562
(dp4563
sS'Bob%20ross'
p4564
(dp4565
sS'TechnoTheft'
p4566
(dp4567
sS'finca2002@gmail.com'
p4568
(dp4569
sS'big.thanos%20chip'
p4570
(dp4571
sS'CharlieSor'
p4572
(dp4573
sS'levelex'
p4574
(dp4575
sS'E706'
p4576
(dp4577
sS'shady.crow'
p4578
(dp4579
sS'spacejam'
p4580
(dp4581
sS'Kamalika'
p4582
(dp4583
sS'Hanaichi'
p4584
(dp4585
sS'carter'
p4586
(dp4587
sS'uwu%20bruh%20666'
p4588
(dp4589
sS'Vegetables'
p4590
(dp4591
sS'DouglasAbert'
p4592
(dp4593
sS'Lexx'
p4594
(dp4595
sS'gentlmen'
p4596
(dp4597
sS'Shasika'
p4598
(dp4599
sS'Woolfuff'
p4600
(dp4601
sS'FilthyCartoonist'
p4602
(dp4603
sS'ComicBoi'
p4604
(dp4605
sS'DarrinBlunc'
p4606
(dp4607
sS'D34D'
p4608
(dp4609
sS'All%20Outta%20Angst'
p4610
(dp4611
sS'anicek1'
p4612
(dp4613
sS'laadamro'
p4614
(dp4615
sS'Joanna%20Maciel%20'
p4616
(dp4617
sS'lizthebirdbird'
p4618
(dp4619
sS'Jeffreyadjub'
p4620
(dp4621
sS'C4G'
p4622
(dp4623
sS'menkiine'
p4624
(dp4625
sS'Aditya404'
p4626
(dp4627
sS'toenails'
p4628
(dp4629
sS'KawaiiMeeps'
p4630
(dp4631
sS'TheRealMW'
p4632
(dp4633
sS'Ali%20&%20the%20bear'
p4634
(dp4635
sS'lee'
p4636
(dp4637
sS'Scritchscratch'
p4638
(dp4639
sS'PepperRotts'
p4640
(dp4641
sS'Fran-nyan'
p4642
(dp4643
sS'Winego'
p4644
(dp4645
sS'Ogre%20Queen%20'
p4646
(dp4647
sS'Kaka1'
p4648
(dp4649
sS'OhHeyLookAnotherTree'
p4650
(dp4651
sS'Nosoytimida1'
p4652
(dp4653
sS'Colise'
p4654
(dp4655
sS'Geraldinaws'
p4656
(dp4657
sS'MrMoose'
p4658
(dp4659
sS'OlegBiz'
p4660
(dp4661
sS'YuristFom'
p4662
(dp4663
sS'Aim%20Ren'
p4664
(dp4665
sS'ck13'
p4666
(dp4667
sS'Sketchii'
p4668
(dp4669
sS'magic8ball'
p4670
(dp4671
sS'stephany'
p4672
(dp4673
sS'ironically%20horny'
p4674
(dp4675
sS'nameless'
p4676
(dp4677
sS'Yeet'
p4678
(dp4679
sS'kookyvonkoopa'
p4680
(dp4681
sS'Oscar'
p4682
(dp4683
sS'Toxic%20Miau'
p4684
(dp4685
sS'matt_hunger'
p4686
(dp4687
sS'cedric_ng'
p4688
(dp4689
sS'Aesthetic Bagel'
p4690
(dp4691
sS'Nico'
p4692
(dp4693
sS'Rockin%20Red'
p4694
(dp4695
sS'Mahteeyah'
p4696
(dp4697
sS'Mj%C3%B6lmacka'
p4698
(dp4699
sS'Legendairy%20'
p4700
(dp4701
sS'SpookleJuice'
p4702
(dp4703
sS'wulven'
p4704
(dp4705
sS'ChelseyWumbo'
p4706
(dp4707
sS'MDL'
p4708
(dp4709
sS'Dre'
p4710
(dp4711
sS'Awelotta'
p4712
(dp4713
sS'Shophshie'
p4714
(dp4715
sS'themindofdre'
p4716
(dp4717
sS'Astarabriarart'
p4718
(dp4719
sS'RandalRiz'
p4720
(dp4721
sS'Allyx'
p4722
(dp4723
sS'KassadyDahlke'
p4724
(dp4725
sS'Just%20Something%20'
p4726
(dp4727
sS'Ali%20Bird'
p4728
(dp4729
sS'Jerryhen'
p4730
(dp4731
sS'Rubberrabbit'
p4732
(dp4733
sS'karrimara'
p4734
(dp4735
sS'Ayame'
p4736
(dp4737
sS'Unicorn101'
p4738
(dp4739
sS'Lana'
p4740
(dp4741
sS'bullcraptime'
p4742
(dp4743
sS'Faith%20Dazyti'
p4744
(dp4745
sS'Noved'
p4746
(dp4747
sS'Distorted666'
p4748
(dp4749
sS'Ant_Dies_Alone'
p4750
(dp4751
sS'Emmengard'
p4752
(dp4753
sS'Claire'
p4754
(dp4755
sS'georgena'
p4756
(dp4757
sS'Kieksh'
p4758
(dp4759
sS'CrillyPad'
p4760
(dp4761
sS'AidenCartoons'
p4762
(dp4763
sS'Clod'
p4764
(dp4765
sS'Peplitz'
p4766
(dp4767
sS'Anubis_Best_Doggo'
p4768
(dp4769
sS'J%20TEA%20the%20artist'
p4770
(dp4771
sS'BluePlumberrix'
p4772
(dp4773
sS'ZSeibar'
p4774
(dp4775
sS'Dangubblue'
p4776
(dp4777
sS'Shaan'
p4778
(dp4779
sS'Cre8tive'
p4780
(dp4781
sS'The Burned Man'
p4782
(dp4783
sS'dibleddyFen'
p4784
(dp4785
sS'stripleripple'
p4786
(dp4787
sS'Oritler'
p4788
(dp4789
sS'Mike%20Winters'
p4790
(dp4791
sS'JAESAFF%20'
p4792
(dp4793
sS'NoSpaces12'
p4794
(dp4795
sS'geoffox'
p4796
(dp4797
sS'Alestance'
p4798
(dp4799
sS'ZXbliply'
p4800
(dp4801
sS'Sunny%20Lolly'
p4802
(dp4803
sS'hopeadrift'
p4804
(dp4805
sS'WaiW41'
p4806
(dp4807
sS'Safwan19'
p4808
(dp4809
sS'Evanings1'
p4810
(dp4811
sS'Kaithesciencepie'
p4812
(dp4813
sS'aspalax'
p4814
(dp4815
sS'Just Alex'
p4816
(dp4817
sS'Winny'
p4818
(dp4819
sS'Mikoteko'
p4820
(dp4821
sS'Anonymous_ink'
p4822
(dp4823
sS'daddy34'
p4824
(dp4825
sS'arewenotdevo'
p4826
(dp4827
sS'Lissasam'
p4828
(dp4829
sS'NEoiStrYinG'
p4830
(dp4831
sS'Tvisu'
p4832
(dp4833
sS'Mindwitch '
p4834
(dp4835
sS'itsm'
p4836
(dp4837
sS'Gore'
p4838
(dp4839
sS'Jazmint'
p4840
(dp4841
sS'Bakhtawar%20'
p4842
(dp4843
sS'MrBunny'
p4844
(dp4845
sS'@_zklss.wav'
p4846
(dp4847
sS'ShenShen'
p4848
(dp4849
sS'Nathan'
p4850
(dp4851
sS'Tashvishli'
p4852
(dp4853
sS'Lexis%20Pryme'
p4854
(dp4855
sS'sthom'
p4856
(dp4857
sS'Q'
p4858
(dp4859
sS'Alexio'
p4860
(dp4861
sS'fffffff'
p4862
(dp4863
sS'Mr_sad_ghost'
p4864
(dp4865
sS'jessejessejesse'
p4866
(dp4867
sS'Joey'
p4868
(dp4869
sS'CatLettuce'
p4870
(dp4871
sS'Teoyie'
p4872
(dp4873
sS'cazzy'
p4874
(dp4875
sS'HellaDami'
p4876
(dp4877
sS'LoneBiDumpster'
p4878
(dp4879
sS'SierraRose'
p4880
(dp4881
sS'Spack%20Jarrow'
p4882
(dp4883
sS'hardhittingghost'
p4884
(dp4885
sS'Kori'
p4886
(dp4887
sS'eleven21'
p4888
(dp4889
sS'Nygma'
p4890
(dp4891
sS'DIYE'
p4892
(dp4893
sS'Paj21Riptide'
p4894
(dp4895
sS'xanghetxe'
p4896
(dp4897
sS'save_the.b'
p4898
(dp4899
sS'hotflopicc'
p4900
(dp4901
sS'Kirko'
p4902
(dp4903
sS'Chroncruik'
p4904
(dp4905
sS'tchukunovska'
p4906
(dp4907
sS'Bird'
p4908
(dp4909
sS'PudimPop'
p4910
(dp4911
sS'NuclearJackal'
p4912
(dp4913
sS'JThePilot'
p4914
(dp4915
sS'Maddison-rose'
p4916
(dp4917
sS'Harryjam'
p4918
(dp4919
sS'Glaikit%20Rover'
p4920
(dp4921
sS'tyler'
p4922
(dp4923
sS'YeetYoinkPotato'
p4924
(dp4925
sS'Luis'
p4926
(dp4927
sS'KingCrimson'
p4928
(dp4929
sS'antidote'
p4930
(dp4931
sS'skytheartfreak'
p4932
(dp4933
sS'Azaeroth'
p4934
(dp4935
sS'Loganmadder'
p4936
(dp4937
sS'ooglez'
p4938
(dp4939
sS'Aztek'
p4940
(dp4941
sS'marinadiktova'
p4942
(dp4943
sS'whatsshecalled'
p4944
(dp4945
sS'Ashi__'
p4946
(dp4947
sS'Cat'
p4948
(dp4949
sS'artbyjenxx'
p4950
(dp4951
sS'WhiskyMammut'
p4952
(dp4953
sS'Adam'
p4954
(dp4955
sS'AR.E'
p4956
(dp4957
sS'Noctivagus'
p4958
(dp4959
sS'Seagull'
p4960
(dp4961
sS'shearer9'
p4962
(dp4963
sS'Ibu'
p4964
(dp4965
sS'Vitriolic2.0'
p4966
(dp4967
sS'sanekwqwd'
p4968
(dp4969
sS'Tenzing'
p4970
(dp4971
sS'Little.Slice.of.Pie'
p4972
(dp4973
sS'deearepee'
p4974
(dp4975
sS't.j._lives'
p4976
(dp4977
sS'Lost_Mark'
p4978
(dp4979
sS'Celestial%20Moonstar'
p4980
(dp4981
sS'Squid'
p4982
(dp4983
sS'Jdawg'
p4984
(dp4985
sS'Danindaden'
p4986
(dp4987
sS'Kath'
p4988
(dp4989
sS'Kuri-Nya'
p4990
(dp4991
sS'nabilaggouni'
p4992
(dp4993
sS'Namorroman'
p4994
(dp4995
sS'gnz6rcnb3q1'
p4996
(dp4997
sS'Meow%20the%20Fronk'
p4998
(dp4999
sS'hisdfg'
p5000
(dp5001
sS'Void-God'
p5002
(dp5003
sS'Quraishi'
p5004
(dp5005
sS'StrunDuse2345'
p5006
(dp5007
sS'Ricarics'
p5008
(dp5009
sS'Skye%20cats!'
p5010
(dp5011
sS'Jeremypobia'
p5012
(dp5013
sS'Lurifax'
p5014
(dp5015
sS'Bubble'
p5016
(dp5017
sS'CTOON'
p5018
(dp5019
sS'Baba'
p5020
(dp5021
sS'MJW_CreationStation'
p5022
(dp5023
sS'Mia'
p5024
(dp5025
sS'Monster._.bunny'
p5026
(dp5027
sS'nowadays'
p5028
(dp5029
sS'InTheGalaxyITG'
p5030
(dp5031
sS'AnnenasComics'
p5032
(dp5033
sS'Juliette'
p5034
(dp5035
sS'Tatti'
p5036
(dp5037
sS'ottoooooo'
p5038
(dp5039
sS'Tyra004'
p5040
(dp5041
sS'Ozzet'
p5042
(dp5043
sS'Adi'
p5044
(dp5045
sS'RoiYogev'
p5046
(dp5047
sS'astoriaisnevergone'
p5048
(dp5049
sS'red'
p5050
(dp5051
sS'LizardPie34'
p5052
(dp5053
sS'Minsik.tea'
p5054
(dp5055
sS'Asthc_artt'
p5056
(dp5057
sS'Itoshinigami'
p5058
(dp5059
sS'Buddha-TeddyArt'
p5060
(dp5061
sS'Mattie'
p5062
(dp5063
sS'waawaaaaaaaaaaaaaaaa'
p5064
(dp5065
sS'Octavian'
p5066
(dp5067
sS'kartik%20'
p5068
(dp5069
sS'Haldol'
p5070
(dp5071
sS'ashieisanugget'
p5072
(dp5073
sS'@mouthbrooder'
p5074
(dp5075
sS'bebblett'
p5076
(dp5077
sS'JeffreyTow'
p5078
(dp5079
sS'ArjunRampSl'
p5080
(dp5081
sS'Owen'
p5082
(dp5083
sS'Roman'
p5084
(dp5085
sS'SophiesPans'
p5086
(dp5087
sS'denamamoto'
p5088
(dp5089
sS'OtterBottle'
p5090
(dp5091
sS'Nicacriativa%20'
p5092
(dp5093
sS'KinseyKelley'
p5094
(dp5095
sS'PerroLaser'
p5096
(dp5097
sS'Sebby'
p5098
(dp5099
sS'Kian'
p5100
(dp5101
sS'NoName558'
p5102
(dp5103
sS'%20Blasphemy'
p5104
(dp5105
sS'bunchee.comics'
p5106
(dp5107
sS'Vaasu'
p5108
(dp5109
sS'Your_Friend_Anxiety%20'
p5110
(dp5111
sS'Kevin'
p5112
(dp5113
sS'bitch'
p5114
(dp5115
sS'emmeanais%20'
p5116
(dp5117
sS'supercult'
p5118
(dp5119
sS'CreativeName'
p5120
(dp5121
sS'Lobinha92'
p5122
(dp5123
sS'Stone_Flower'
p5124
(dp5125
sS'Beatrice%20'
p5126
(dp5127
sS'Miss%20Johnny%20Zombie'
p5128
(dp5129
sS'Ndgdjsn'
p5130
(dp5131
sS'Eduardo'
p5132
(dp5133
sS'boredcartoonist'
p5134
(dp5135
sS'Blauwe_Kitty'
p5136
(dp5137
sS'RachelDraws'
p5138
(dp5139
sS'yoshiisking'
p5140
(dp5141
sS'samuelindra'
p5142
(dp5143
sS'WeirdPotato'
p5144
(dp5145
sS'SummerRays'
p5146
(dp5147
sS'Korgiis'
p5148
(dp5149
sS'Esther%20'
p5150
(dp5151
sS'SteliosPapas'
p5152
(dp5153
sS'Davos'
p5154
(dp5155
sS'Spaggy'
p5156
(dp5157
sS'carbonbased lifeform'
p5158
(dp5159
sS'French%20project'
p5160
(dp5161
sS'Succi'
p5162
(dp5163
sS'argos'
p5164
(dp5165
sS'NicolAA'
p5166
(dp5167
sS'hyko'
p5168
(dp5169
sS'Per'
p5170
(dp5171
sS'Bluwbird'
p5172
(dp5173
sS'ferperi'
p5174
(dp5175
sS'dirtyeggplant'
p5176
(dp5177
sS'ben'
p5178
(dp5179
sS'KJ'
p5180
(dp5181
sS'Anderson'
p5182
(dp5183
sS'bee'
p5184
(dp5185
sS'plop_09'
p5186
(dp5187
sS'Kassady%20Dahlke'
p5188
(dp5189
sS'Fletcher'
p5190
(dp5191
sS'kaelah'
p5192
(dp5193
sS'ktarrow001'
p5194
(dp5195
sS'vaporflare'
p5196
(dp5197
sS'Cosmic%20Nightmare'
p5198
(dp5199
sS'ohn0'
p5200
(dp5201
sS'AAA'
p5202
(dp5203
sS'Manga_man'
p5204
(dp5205
sS'Not_Frankie'
p5206
(dp5207
sS'AWill'
p5208
(dp5209
sS'mickeymaja'
p5210
(dp5211
sS'braintoxic'
p5212
(dp5213
sS'Bruj'
p5214
(dp5215
sS'Ianjlk'
p5216
(dp5217
sS'Pan'
p5218
(dp5219
sS'Salted%20Lemon'
p5220
(dp5221
sS'Mindwitch%20'
p5222
(dp5223
sS'Lidnun'
p5224
(dp5225
sS'Merre'
p5226
(dp5227
sS'TheSaltyPepper'
p5228
(dp5229
sS'Jlag36'
p5230
(dp5231
sS'Nethraa'
p5232
(dp5233
sS'florille'
p5234
(dp5235
sS'Banshiboy'
p5236
(dp5237
sS'Handicrapped'
p5238
(dp5239
sS'lily'
p5240
(dp5241
sS'Evemadliene'
p5242
(dp5243
sS'Apaserness'
p5244
(dp5245
sS'Kid_flim'
p5246
(dp5247
sS'Grey_Ghost32'
p5248
(dp5249
sS'Starfang'
p5250
(dp5251
sS'JustinChalifoux'
p5252
(dp5253
sS'lemmonbars'
p5254
(dp5255
sS'hydrFup'
p5256
(dp5257
sS'shikiryu'
p5258
(dp5259
sS'Marshdpotatoes%20'
p5260
(dp5261
sS'awd'
p5262
(dp5263
sS'WizardCroissant'
p5264
(dp5265
sS'RonsoloXD'
p5266
(dp5267
sS'AnnaGracie'
p5268
(dp5269
sS'Flashyboy66'
p5270
(dp5271
sS'Zebot'
p5272
(dp5273
sS'Soma'
p5274
(dp5275
sS'Scrappy'
p5276
(dp5277
sS'Derpino'
p5278
(dp5279
sS'CecilShiep'
p5280
(dp5281
sS'Steve%20Jarvis_'
p5282
(dp5283
sS'RithTrelin'
p5284
(dp5285
sS'Marichyan'
p5286
(dp5287
sS'sunflowercorpse'
p5288
(dp5289
sS'harp00ns'
p5290
(dp5291
sS'dedao233'
p5292
(dp5293
sS'AshleyValkyrie '
p5294
(dp5295
sS'MoZ'
p5296
(dp5297
sS'HumptyNumpty'
p5298
(dp5299
sS'foolmoon'
p5300
(dp5301
sS'Noor745'
p5302
(dp5303
sS'Harry'
p5304
(dp5305
sS'scotty'
p5306
(dp5307
sS'MarkVinic'
p5308
(dp5309
sS'Fatima'
p5310
(dp5311
sS'xcandyslice'
p5312
(dp5313
sS'Jackson%20Powell'
p5314
(dp5315
sS'ORod'
p5316
(dp5317
sS'Verwy'
p5318
(dp5319
sS'Kumquat'
p5320
(dp5321
sS'Goat'
p5322
(dp5323
sS'Jaggerto'
p5324
(dp5325
sS'LauriJean.Life'
p5326
(dp5327
sS'Freyzart'
p5328
(dp5329
sS'Kris'
p5330
(dp5331
sS'k.jean'
p5332
(dp5333
sS'FutureFries'
p5334
(dp5335
sS'Dannybok'
p5336
(dp5337
sS'@sean_donahue_art'
p5338
(dp5339
sS'Moe'
p5340
(dp5341
sS'WarrenDax'
p5342
(dp5343
sS'NegaPosi'
p5344
(dp5345
sS'Inshire%20'
p5346
(dp5347
sS'Corine'
p5348
(dp5349
sS'Scrumiize%20'
p5350
(dp5351
sS'SomeStupidStuff'
p5352
(dp5353
sS'devryan'
p5354
(dp5355
sS'RomanCom'
p5356
(dp5357
sS'The%20Burned%20Man'
p5358
(dp5359
sS'caffeinebean'
p5360
(dp5361
sS'fire%20lord'
p5362
(dp5363
sS'LoneBisexualDump'
p5364
(dp5365
sS'Blurboysoowee'
p5366
(dp5367
sS'Ansenmypants'
p5368
(dp5369
sS'Soupid'
p5370
(dp5371
sS'bmyaris'
p5372
(dp5373
sS'Bodthegutthead'
p5374
(dp5375
sS'SaraB.'
p5376
(dp5377
sS'Linlout1'
p5378
(dp5379
sS'zduckute'
p5380
(dp5381
sS'Mafu'
p5382
(dp5383
sS'Daphnelly%20'
p5384
(dp5385
sS'Godmode'
p5386
(dp5387
sS'Hester'
p5388
(dp5389
sS'Connor%20Da%20Vinci'
p5390
(dp5391
sS'fdvddfvf'
p5392
(dp5393
sS'Akuyi'
p5394
(dp5395
sS'Cat%20Person'
p5396
(dp5397
sS'sachaspaneljam'
p5398
(dp5399
sS'Glimmy'
p5400
(dp5401
sS'synergy_y'
p5402
(dp5403
sS'Daxserus'
p5404
(dp5405
sS'Maoo7'
p5406
(dp5407
sS'luV'
p5408
(dp5409
sS'Meme_Queen'
p5410
(dp5411
sS'Hentai_is_Bestai'
p5412
(dp5413
sS'_mica_art%20'
p5414
(dp5415
sS'Rainbowfusion86'
p5416
(dp5417
sS'SallyMay53421'
p5418
(dp5419
sS'agnieszka'
p5420
(dp5421
sS'LorenzoZ'
p5422
(dp5423
sS'LeafyJadeStone'
p5424
(dp5425
sS'luf'
p5426
(dp5427
sS'Megrent'
p5428
(dp5429
sS'PJ'
p5430
(dp5431
sS'marshmaco%20'
p5432
(dp5433
sS'Phelipe%20'
p5434
(dp5435
sS'Np1248'
p5436
(dp5437
sS'wapp'
p5438
(dp5439
sS'SamButers'
p5440
(dp5441
sS'kek'
p5442
(dp5443
sS'dorakutinina'
p5444
(dp5445
sS'sams_dead'
p5446
(dp5447
sS'DingusInYourBasement'
p5448
(dp5449
sS'Moreno'
p5450
(dp5451
sS'DullAssHarp'
p5452
(dp5453
sS'jon'
p5454
(dp5455
sS'MarinePieuw'
p5456
(dp5457
sS'biaboon'
p5458
(dp5459
sS'ScarySweet'
p5460
(dp5461
sS'emmaecho'
p5462
(dp5463
sS'heike.luise'
p5464
(dp5465
sS'Echo3125'
p5466
(dp5467
sS'CondescendedWow'
p5468
(dp5469
sS'swoft'
p5470
(dp5471
sS'luanregis'
p5472
(dp5473
sS'SuperHype'
p5474
(dp5475
sS'Heya_Its_Sarah'
p5476
(dp5477
sS'Starscreamers'
p5478
(dp5479
sS'DinosWithHats'
p5480
(dp5481
sS'_Jupiterz_'
p5482
(dp5483
sS'Beverly%20Gallegos'
p5484
(dp5485
sS'scootmoondog'
p5486
(dp5487
sS'Robert%20Alex'
p5488
(dp5489
sS'Stephenmup'
p5490
(dp5491
sS'TheDoctor'
p5492
(dp5493
sS'SallyMay'
p5494
(dp5495
sS'opFez'
p5496
(dp5497
sS'Hex'
p5498
(dp5499
sS'Lol'
p5500
(dp5501
sS'Gatanung'
p5502
(dp5503
sS'irenapozzina'
p5504
(dp5505
sS'Mrgreenhp'
p5506
(dp5507
sS'angstyllama'
p5508
(dp5509
sS'CiaraTheBanana'
p5510
(dp5511
sS'BeckyMetal'
p5512
(dp5513
sS'Venjasaurusrex'
p5514
(dp5515
sS'Youritgames'
p5516
(dp5517
sS'Noober'
p5518
(dp5519
sS'BITCHIN%20'
p5520
(dp5521
sS'BluJay'
p5522
(dp5523
sS'Ges'
p5524
(dp5525
sS'Luckyduck'
p5526
(dp5527
sS'Berrybumcrumble'
p5528
(dp5529
sS'Hilliean'
p5530
(dp5531
sS'pixxa'
p5532
(dp5533
sS'Awena'
p5534
(dp5535
sS'cenk'
p5536
(dp5537
sS'Octaviadj'
p5538
(dp5539
sS'Lamik-D'
p5540
(dp5541
sS'mike'
p5542
(dp5543
sS'Tkaoaii.artz'
p5544
(dp5545
sS'DEdot'
p5546
(dp5547
sS'Slummed'
p5548
(dp5549
sS'vebrri'
p5550
(dp5551
sS'The%20Lawful%20Mike'
p5552
(dp5553
sS'Brand0n3500'
p5554
(dp5555
sS'Lake'
p5556
(dp5557
sS'Indigonotblue'
p5558
(dp5559
sS'tiffanyir'
p5560
(dp5561
sS'AmrielArt'
p5562
(dp5563
sS'nowandt%20:0'
p5564
(dp5565
sS'Lynnlyn'
p5566
(dp5567
sS'Sirius Solemn'
p5568
(dp5569
sS'hellohitesh'
p5570
(dp5571
sS'Celestial'
p5572
(dp5573
sS'Wilder'
p5574
(dp5575
sS'pouso'
p5576
(dp5577
sS'Ani'
p5578
(dp5579
sS'Nouke'
p5580
(dp5581
sS'Ant'
p5582
(dp5583
sS'nameko'
p5584
(dp5585
sS'Becca'
p5586
(dp5587
sS'C%20D'
p5588
(dp5589
sS'Roodles_Doodles'
p5590
(dp5591
sS'Bossu%20Finn'
p5592
(dp5593
sS'dssdds'
p5594
(dp5595
sS'Wanderer%20Annie'
p5596
(dp5597
sS'JustSomeGuy'
p5598
(dp5599
sS'TaziTazi15'
p5600
(dp5601
sS'Andycug'
p5602
(dp5603
sS'ScarletMagi'
p5604
(dp5605
sS'Sir_Nathan_The_Needy'
p5606
(dp5607
sS'alexi1907'
p5608
(dp5609
sS'Kinglyboneyard'
p5610
(dp5611
sS'drunkenclaus'
p5612
(dp5613
sS'Strom'
p5614
(dp5615
sS'Mizuki-chan'
p5616
(dp5617
sS'germanPepe'
p5618
(dp5619
sS'Fianacci'
p5620
(dp5621
sS'ChaosCelty'
p5622
(dp5623
sS'Captain Fetus'
p5624
(dp5625
sS'Rachelmare'
p5626
(dp5627
sS'Hina the Meme-ma'
p5628
(dp5629
sS'GuerraSernas'
p5630
(dp5631
sS'SaltedOtaku'
p5632
(dp5633
sS'Winitori_Studios%20'
p5634
(dp5635
sS'Karen'
p5636
(dp5637
sS'Bear'
p5638
(dp5639
sS'mother_yes'
p5640
(dp5641
sS'oppai'
p5642
(dp5643
sS'gasterphaz'
p5644
(dp5645
sS'Nate'
p5646
(dp5647
sS'sickdick'
p5648
(dp5649
sS'BigSlim'
p5650
(dp5651
sS'Rachelmary'
p5652
(dp5653
sS'heatherc'
p5654
(dp5655
sS'Tsumi'
p5656
(dp5657
sS'Beerwitchh'
p5658
(dp5659
sS'WileyCreli'
p5660
(dp5661
sS'Ravenix'
p5662
(dp5663
sS'tastelessbih'
p5664
(dp5665
sS'Gervincampbellsoup'
p5666
(dp5667
sS'Kyle'
p5668
(dp5669
sS'RobTheWrecker'
p5670
(dp5671
sS'@Milkwaffles%20'
p5672
(dp5673
sS'dark%20pipou'
p5674
(dp5675
sS'Amethyst%20'
p5676
(dp5677
sS'dust'
p5678
(dp5679
sS'Kibs'
p5680
(dp5681
sS'BenAGoodLife'
p5682
(dp5683
sS'nerdygeekyart'
p5684
(dp5685
sS'Bethcowan'
p5686
(dp5687
sS'Julia'
p5688
(dp5689
sS'Daruth'
p5690
(dp5691
sS'Kittfee'
p5692
(dp5693
sS'KatrinaIceheart'
p5694
(dp5695
sS'EscomanPok'
p5696
(dp5697
sS'Ysabel%20'
p5698
(dp5699
sS'kolibb'
p5700
(dp5701
sS'JanEldrickStaInes'
p5702
(dp5703
sS'Tibbelina'
p5704
(dp5705
sS'Flower'
p5706
(dp5707
sS'BB'
p5708
(dp5709
sS'boot'
p5710
(dp5711
sS'Moonsalami'
p5712
(dp5713
sS'emilie%20mott'
p5714
(dp5715
sS'Grey%20Sky'
p5716
(dp5717
sS'Adara'
p5718
(dp5719
sS'Superrarepuppycake'
p5720
(dp5721
sS'k_sualdrawings'
p5722
(dp5723
sS'Silver%20Wish'
p5724
(dp5725
sS'Nicholas'
p5726
(dp5727
sS'Akaei%20Akuma'
p5728
(dp5729
sS'Rovaen'
p5730
(dp5731
sS'MaddyCatArt'
p5732
(dp5733
sS'BlackCatArtist'
p5734
(dp5735
sS'Kandi'
p5736
(dp5737
sS'kartunista.inc'
p5738
(dp5739
sS'NND'
p5740
(dp5741
sS'radiomix1'
p5742
(dp5743
sS'Psichord'
p5744
(dp5745
sS'Victoria'
p5746
(dp5747
sS'Doodlinthatnow'
p5748
(dp5749
sS'authorchanwp'
p5750
(dp5751
sS'St Anger'
p5752
(dp5753
sS'lucasmerlin'
p5754
(dp5755
sS'Charloy'
p5756
(dp5757
sS'ANAYA'
p5758
(dp5759
sS'Painterjosh'
p5760
(dp5761
sS'Cjaj2'
p5762
(dp5763
sS'unworldlycrust'
p5764
(dp5765
sS'anonmine'
p5766
(dp5767
sS'Dani%20Mell%20'
p5768
(dp5769
sS'MagisterOmnicron%20'
p5770
(dp5771
sS'Guestiny'
p5772
(dp5773
sS'jules'
p5774
(dp5775
sS'Ollack'
p5776
(dp5777
sS'jule2000'
p5778
(dp5779
sS'MeiizKei'
p5780
(dp5781
sS'Harlow%20Haim'
p5782
(dp5783
sS'ByReenaRae'
p5784
(dp5785
sS'Doyorn'
p5786
(dp5787
sS'Andrewfueld'
p5788
(dp5789
sS'Fuzzy_Folk'
p5790
(dp5791
sS'shumbuckets'
p5792
(dp5793
sS'JIHO'
p5794
(dp5795
sS'Bemi_san'
p5796
(dp5797
sS'Yntec'
p5798
(dp5799
sS'JamesBep'
p5800
(dp5801
sS'taco%20toast'
p5802
(dp5803
sS'pizzaboi'
p5804
(dp5805
sS'RileytheRandomArtist'
p5806
(dp5807
sS'lucyelle'
p5808
(dp5809
sS'Thunder'
p5810
(dp5811
sS'AlvinKes'
p5812
(dp5813
sS'IceSound'
p5814
(dp5815
sS'Wolverine%20'
p5816
(dp5817
sS'moonbeamz'
p5818
(dp5819
sS'TriggerPT'
p5820
(dp5821
sS'peter'
p5822
(dp5823
sS'Nettie'
p5824
(dp5825
sS'jojo'
p5826
(dp5827
sS'Chris%20%F0%9F%90%B0'
p5828
(dp5829
sS'ihilhi'
p5830
(dp5831
sS'Limelamb'
p5832
(dp5833
sS'Trilliumdude'
p5834
(dp5835
sS'Kayla'
p5836
(dp5837
sS'Isamaea'
p5838
(dp5839
sS'BreastBiscuit'
p5840
(dp5841
sS'RowrBazl'
p5842
(dp5843
sS'flyferz'
p5844
(dp5845
sS'HegaToon'
p5846
(dp5847
sS'Eden'
p5848
(dp5849
sS'JadenK'
p5850
(dp5851
sS'omgjenniqueartworks'
p5852
(dp5853
sS'Pikpeter9'
p5854
(dp5855
sS'deepseakeo'
p5856
(dp5857
sS'missnapkindoodle'
p5858
(dp5859
sS'EyeABall'
p5860
(dp5861
sS'Cookiemonstah'
p5862
(dp5863
sS'TysonTurnpike'
p5864
(dp5865
sS'Hawkotorium'
p5866
(dp5867
sS'Laureano%20'
p5868
(dp5869
sS'Watermellody%20'
p5870
(dp5871
sS'Kibbytime'
p5872
(dp5873
sS'Yosu'
p5874
(dp5875
sS'Darien'
p5876
(dp5877
sS'pooja'
p5878
(dp5879
sS'Fishel_Blub'
p5880
(dp5881
sS'benscomics'
p5882
(dp5883
sS'Richardfus'
p5884
(dp5885
sS'Scrubblemain'
p5886
(dp5887
sS'Darylbiacy'
p5888
(dp5889
sS'pistols'
p5890
(dp5891
sS'crocky_0'
p5892
(dp5893
sS'still_eli'
p5894
(dp5895
sS'Karumin'
p5896
(dp5897
sS'Zuniga'
p5898
(dp5899
sS'sunshroomhatessun'
p5900
(dp5901
sS'Supercat'
p5902
(dp5903
sS'GlennicusM'
p5904
(dp5905
sS'Hellboy'
p5906
(dp5907
sS'taromilkpudding'
p5908
(dp5909
sS'Lunante'
p5910
(dp5911
sS'EccoUniform'
p5912
(dp5913
sS'StuddaBubbas'
p5914
(dp5915
sS'StrunDuse2344'
p5916
(dp5917
sS'Raptor%20Matt'
p5918
(dp5919
sS'Bluwbird%20'
p5920
(dp5921
sS'Alvaro%20:3'
p5922
(dp5923
sS'oVictor'
p5924
(dp5925
sS'zigmenthotep'
p5926
(dp5927
sS'Exspired_'
p5928
(dp5929
sS'Cortado%20En%20Jarrito'
p5930
(dp5931
sS'Lawrence'
p5932
(dp5933
sS'mingye'
p5934
(dp5935
sS'Road%20Kill'
p5936
(dp5937
sS'Lydia'
p5938
(dp5939
sS'anupa'
p5940
(dp5941
sS'lord%20fagquad'
p5942
(dp5943
sS'ichthys'
p5944
(dp5945
sS'AM the shithead'
p5946
(dp5947
sS'StrunDuse234'
p5948
(dp5949
sS'infinite_canvas'
p5950
(dp5951
sS'Martinezcol'
p5952
(dp5953
sS'ht'
p5954
(dp5955
sS'LaurLaur'
p5956
(dp5957
sS'kamucchi'
p5958
(dp5959
sS'KiwiTofu'
p5960
(dp5961
sS'FightMeHelen%20'
p5962
(dp5963
sS'Chelsea'
p5964
(dp5965
sS'crocky'
p5966
(dp5967
sS'Jenny'
p5968
(dp5969
sS'TheMoth'
p5970
(dp5971
sS'theunderfold'
p5972
(dp5973
sS'Bootylicious'
p5974
(dp5975
sS'DeathFromOuterSpace'
p5976
(dp5977
sS'dedao2333'
p5978
(dp5979
sS'Scopaybap'
p5980
(dp5981
sS'Clautoffel'
p5982
(dp5983
sS'Bruce3'
p5984
(dp5985
sS'Subah'
p5986
(dp5987
sS'deviouslilnoodle'
p5988
(dp5989
sS'LeeBee'
p5990
(dp5991
sS'Crzyhayhay'
p5992
(dp5993
sS'Ploopy'
p5994
(dp5995
sS'Ambivalent%20Artist'
p5996
(dp5997
sS'MimiChair'
p5998
(dp5999
sS'NikolDNM'
p6000
(dp6001
sS'Jojo123123'
p6002
(dp6003
sS'MaKCR'
p6004
(dp6005
sS'Melbird'
p6006
(dp6007
sS'Fightmeh'
p6008
(dp6009
sS'ScarletSaber'
p6010
(dp6011
sS'Typical_Hetero_Human'
p6012
(dp6013
sS'Baboonbutt'
p6014
(dp6015
sS"It's_detergent"
p6016
(dp6017
sS'jesse'
p6018
(dp6019
sS'missklown'
p6020
(dp6021
sS'Richardgew'
p6022
(dp6023
sS'AlbertExice'
p6024
(dp6025
sS'montez'
p6026
(dp6027
sS'Sanjuktha%20Vimal'
p6028
(dp6029
sS'2cupsoforangejuice'
p6030
(dp6031
sS'brooke'
p6032
(dp6033
sS'littlehillcomics'
p6034
(dp6035
sS'L.E '
p6036
(dp6037
sS'Daniellek'
p6038
(dp6039
sS'blightint'
p6040
(dp6041
sS'Linesmith'
p6042
(dp6043
sS'Marshmelllooz%20'
p6044
(dp6045
sS'Marie'
p6046
(dp6047
sS'Larissa'
p6048
(dp6049
sS'synchrolord'
p6050
(dp6051
sS'fdan22'
p6052
(dp6053
sS'tchello66'
p6054
(dp6055
sS'MarioFan2019'
p6056
(dp6057
sS'AyeChi'
p6058
(dp6059
sS'Hanna'
p6060
(dp6061
sS'LazyJellyfish'
p6062
(dp6063
sS'taytay'
p6064
(dp6065
sS'annabelle'
p6066
(dp6067
sS'Alcedo'
p6068
(dp6069
sS'Xenon'
p6070
(dp6071
sS'lyamalinkova'
p6072
(dp6073
sS'Stewart'
p6074
(dp6075
sS'Inky_teapot'
p6076
(dp6077
sS'LuxuryBetpab'
p6078
(dp6079
sS'amhart'
p6080
(dp6081
sS'BrohoofKnockout'
p6082
(dp6083
sS'arbitrary.artist'
p6084
(dp6085
sS'Healer'
p6086
(dp6087
ssS'graph'
p6088
(dp6089
sS'nodes'
p6090
g0
(cnetworkx.classes.reportviews
NodeView
p6091
g2
Ntp6092
Rp6093
(dp6094
S'_nodes'
p6095
g11
sbsS'_adj'
p6096
(dp6097
g12
(dp6098
sg14
(dp6099
sg16
(dp6100
sg18
(dp6101
sg20
(dp6102
sg22
(dp6103
sg24
(dp6104
sg26
(dp6105
sg28
(dp6106
sg30
(dp6107
S'missklown'
p6108
(dp6109
sg864
(dp6110
sg5898
(dp6111
sg418
(dp6112
ssg32
(dp6113
sg34
(dp6114
g5908
(dp6115
sS'Cheenapus'
p6116
(dp6117
ssg36
(dp6118
sg38
(dp6119
sg40
(dp6120
sg42
(dp6121
g2596
(dp6122
ssg44
(dp6123
sg46
(dp6124
sg48
(dp6125
sg50
(dp6126
sg52
(dp6127
sg54
(dp6128
sg56
(dp6129
g2022
(dp6130
ssg58
(dp6131
S'AyeChi'
p6132
(dp6133
ssg60
(dp6134
sg62
(dp6135
sg64
(dp6136
sg66
(dp6137
sg68
(dp6138
sg70
(dp6139
sg72
(dp6140
sg74
(dp6141
sg76
(dp6142
sg78
(dp6143
sg80
(dp6144
S'xavvypls'
p6145
(dp6146
sS'lemmonbars'
p6147
(dp6148
ssg82
(dp6149
sg84
(dp6150
sg86
(dp6151
sg88
(dp6152
sg90
(dp6153
sg92
(dp6154
sg94
(dp6155
sg96
(dp6156
sg98
(dp6157
g4320
(dp6158
sS'Dragatile'
p6159
(dp6160
ssg100
(dp6161
sg102
(dp6162
sg104
(dp6163
sg106
(dp6164
sg108
(dp6165
sg110
(dp6166
sg112
(dp6167
sg114
(dp6168
sg116
(dp6169
sg118
(dp6170
sg120
(dp6171
sg122
(dp6172
sg124
(dp6173
sg126
(dp6174
sg128
(dp6175
sg130
(dp6176
sg132
(dp6177
sg134
(dp6178
sg136
(dp6179
sg138
(dp6180
sg140
(dp6181
sg142
(dp6182
sg144
(dp6183
sg146
(dp6184
sg148
(dp6185
sg150
(dp6186
sg152
(dp6187
sg154
(dp6188
S'hasellete'
p6189
(dp6190
sS'AyeChi'
p6191
(dp6192
sS'Zuniga'
p6193
(dp6194
ssg156
(dp6195
sg158
(dp6196
sg160
(dp6197
sg162
(dp6198
sg164
(dp6199
sg166
(dp6200
g4016
(dp6201
sg5264
(dp6202
sg3414
(dp6203
sS'HiveMind'
p6204
(dp6205
ssg168
(dp6206
sg170
(dp6207
sg172
(dp6208
sg174
(dp6209
sg176
(dp6210
sg178
(dp6211
sg180
(dp6212
sg182
(dp6213
sg184
(dp6214
S'Lux'
p6215
(dp6216
sS'Yangstablook'
p6217
(dp6218
sS'JThePilot'
p6219
(dp6220
sg2220
(dp6221
ssg186
(dp6222
sg188
(dp6223
sg190
(dp6224
sg192
(dp6225
sg194
(dp6226
sg196
(dp6227
sg198
(dp6228
sg200
(dp6229
sg202
(dp6230
sg204
(dp6231
g1512
(dp6232
sS'FireWall720'
p6233
(dp6234
ssg206
(dp6235
sg208
(dp6236
sg210
(dp6237
sg212
(dp6238
sg214
(dp6239
sg216
(dp6240
sg218
(dp6241
sg220
(dp6242
sg222
(dp6243
g4522
(dp6244
sg5260
(dp6245
sg2184
(dp6246
sS'Drawception guy'
p6247
(dp6248
sS'Marshdpotatoes '
p6249
(dp6250
ssg224
(dp6251
sg226
(dp6252
sg228
(dp6253
sg230
(dp6254
sg232
(dp6255
sg234
(dp6256
sg236
(dp6257
sg238
(dp6258
g1512
(dp6259
ssg240
(dp6260
S'PerroLaser'
p6261
(dp6262
ssg242
(dp6263
sg244
(dp6264
sg246
(dp6265
sg248
(dp6266
g6145
(dp6267
sg3644
(dp6268
sg1512
(dp6269
ssg250
(dp6270
sg252
(dp6271
sg254
(dp6272
S'DewyBob12'
p6273
(dp6274
ssg256
(dp6275
g752
(dp6276
sg2546
(dp6277
sg4328
(dp6278
sg4494
(dp6279
sg2016
(dp6280
sg4016
(dp6281
sg2646
(dp6282
sg4222
(dp6283
sS'HiveMind'
p6284
(dp6285
sg4402
(dp6286
sg892
(dp6287
sg6018
(dp6288
sS'superstar_pixie'
p6289
(dp6290
sS'surphy'
p6291
(dp6292
sg4230
(dp6293
sS'SaltedOtaku'
p6294
(dp6295
sg6145
(dp6296
sS'InvaderChie'
p6297
(dp6298
sg6074
(dp6299
sg4374
(dp6300
sg3820
(dp6301
sg2888
(dp6302
sg6132
(dp6303
sS'Painterjosh'
p6304
(dp6305
sS'unworldlycrust'
p6306
(dp6307
sg2708
(dp6308
sg3606
(dp6309
sS'RosesArePrickly'
p6310
(dp6311
sg1200
(dp6312
sS'rockinashy'
p6313
(dp6314
sg3802
(dp6315
sS'Delete'
p6316
(dp6317
sS'bebblett'
p6318
(dp6319
sS'PulsingSoul'
p6320
(dp6321
sg1716
(dp6322
sg1584
(dp6323
sg1306
(dp6324
sS'Akuyi'
p6325
(dp6326
sS'@byboaz'
p6327
(dp6328
sS'Deduraptor'
p6329
(dp6330
sg6261
(dp6331
ssg258
(dp6332
sg260
(dp6333
sg262
(dp6334
sg264
(dp6335
sg266
(dp6336
sg268
(dp6337
sg270
(dp6338
sg272
(dp6339
sg274
(dp6340
sg276
(dp6341
sg278
(dp6342
S'wolversheens'
p6343
(dp6344
sg4120
(dp6345
sS'ironically horny'
p6346
(dp6347
sS'aniesque'
p6348
(dp6349
sg4674
(dp6350
sg2230
(dp6351
ssg280
(dp6352
sg282
(dp6353
sg284
(dp6354
sg286
(dp6355
sg288
(dp6356
sg290
(dp6357
sg292
(dp6358
sg294
(dp6359
sg296
(dp6360
sg298
(dp6361
sg300
(dp6362
sg302
(dp6363
sg304
(dp6364
sg306
(dp6365
sg308
(dp6366
sg310
(dp6367
sg312
(dp6368
sg314
(dp6369
sg316
(dp6370
sg318
(dp6371
sg320
(dp6372
sg322
(dp6373
S'partyee'
p6374
(dp6375
sS'y3liak'
p6376
(dp6377
ssg324
(dp6378
sg326
(dp6379
sg328
(dp6380
sg330
(dp6381
sg332
(dp6382
g384
(dp6383
sg2624
(dp6384
sg4320
(dp6385
sS'Juleefish '
p6386
(dp6387
sS'Snitzfoam'
p6388
(dp6389
sg5264
(dp6390
ssg334
(dp6391
sg336
(dp6392
sg338
(dp6393
sg340
(dp6394
sg342
(dp6395
sg344
(dp6396
sg346
(dp6397
sg348
(dp6398
sg350
(dp6399
sg352
(dp6400
sg354
(dp6401
sg356
(dp6402
sg358
(dp6403
sg360
(dp6404
sg362
(dp6405
sg364
(dp6406
sg366
(dp6407
sg368
(dp6408
sg370
(dp6409
sg372
(dp6410
sg374
(dp6411
sg376
(dp6412
sg378
(dp6413
sg380
(dp6414
sg382
(dp6415
sg384
(dp6416
S'Star.skunk'
p6417
(dp6418
sS'Beepadoobop'
p6419
(dp6420
sS'LookItsMrT'
p6421
(dp6422
sS'HiveMind'
p6423
(dp6424
sS'Jack'
p6425
g6383
ssg386
(dp6426
sg388
(dp6427
sg390
(dp6428
g6388
(dp6429
sg4320
(dp6430
sg5264
(dp6431
sS'EdamameBean'
p6432
(dp6433
ssg392
(dp6434
sg394
(dp6435
sg396
(dp6436
sg398
(dp6437
sg400
(dp6438
sg402
(dp6439
sg404
(dp6440
sg406
(dp6441
sg408
(dp6442
sg410
(dp6443
g3644
(dp6444
sg2184
(dp6445
ssg412
(dp6446
sg414
(dp6447
sg416
(dp6448
sg418
(dp6449
g30
g6112
ssg420
(dp6450
sg422
(dp6451
sg424
(dp6452
g4320
(dp6453
sg1512
(dp6454
sS'superstar_pixie'
p6455
(dp6456
sS'y3liak'
p6457
(dp6458
ssg426
(dp6459
sg428
(dp6460
sg430
(dp6461
sg432
(dp6462
sg434
(dp6463
sg436
(dp6464
sg438
(dp6465
sg440
(dp6466
g1420
(dp6467
ssg442
(dp6468
sg444
(dp6469
sg446
(dp6470
sg448
(dp6471
sg450
(dp6472
sg452
(dp6473
sg454
(dp6474
sg456
(dp6475
sg458
(dp6476
sg460
(dp6477
sg462
(dp6478
sg464
(dp6479
sg466
(dp6480
sg468
(dp6481
sg470
(dp6482
sg472
(dp6483
sg474
(dp6484
sg476
(dp6485
g5370
(dp6486
sg692
(dp6487
sg622
(dp6488
sg6273
(dp6489
sg4836
(dp6490
sS'The Green Flame'
p6491
(dp6492
sg1486
(dp6493
ssg478
(dp6494
sg480
(dp6495
sg482
(dp6496
g4016
(dp6497
ssg484
(dp6498
sg486
(dp6499
sg488
(dp6500
sg490
(dp6501
sg492
(dp6502
sg494
(dp6503
S'cazzy'
p6504
(dp6505
ssg496
(dp6506
sg498
(dp6507
sg500
(dp6508
sg502
(dp6509
g596
(dp6510
ssg504
(dp6511
sg506
(dp6512
g3628
(dp6513
sg6147
(dp6514
sS'Fennec'
p6515
(dp6516
ssg508
(dp6517
sg510
(dp6518
sg512
(dp6519
sg514
(dp6520
sg516
(dp6521
sg518
(dp6522
sg520
(dp6523
sg522
(dp6524
sg524
(dp6525
sg526
(dp6526
sg528
(dp6527
sg530
(dp6528
sg532
(dp6529
sg534
(dp6530
sg536
(dp6531
sg538
(dp6532
S'Roodles_Doodles'
p6533
(dp6534
sg1512
(dp6535
sg2646
(dp6536
sg4460
(dp6537
sS'Sirius Solemn'
p6538
(dp6539
ssg540
(dp6540
sg542
(dp6541
sg544
(dp6542
sg546
(dp6543
sg548
(dp6544
sg550
(dp6545
sg552
(dp6546
sg554
(dp6547
sg556
(dp6548
sg558
(dp6549
sg560
(dp6550
sg562
(dp6551
sg564
(dp6552
sg566
(dp6553
sg568
(dp6554
sg570
(dp6555
sg572
(dp6556
sg574
(dp6557
sg576
(dp6558
sg578
(dp6559
sg580
(dp6560
sg582
(dp6561
sg584
(dp6562
sg586
(dp6563
S'The_Silent_Artist'
p6564
(dp6565
sS'Dragatile'
p6566
(dp6567
ssg588
(dp6568
g6132
(dp6569
ssg590
(dp6570
sg592
(dp6571
sg594
(dp6572
sg596
(dp6573
S'Sho-bo'
p6574
(dp6575
sg502
g6510
ssg598
(dp6576
sg600
(dp6577
g752
(dp6578
sg3414
(dp6579
sg1512
(dp6580
sg4320
(dp6581
sS'EdamameBean'
p6582
(dp6583
sg2476
(dp6584
sS'Handicrapped'
p6585
(dp6586
sS'superstar_pixie'
p6587
(dp6588
sg1622
(dp6589
sg1546
(dp6590
sg3644
(dp6591
sS'Juleefish '
p6592
(dp6593
sS'nooz'
p6594
(dp6595
sg3598
(dp6596
sS'Potato Man'
p6597
(dp6598
sS'Painterjosh'
p6599
(dp6600
sS'Loco-L'
p6601
g6267
sS'ironically horny'
p6602
(dp6603
sS'Star.skunk'
p6604
(dp6605
sg4674
(dp6606
sg5264
(dp6607
sS'jamdaddy'
p6608
g6296
sg6457
(dp6609
sg2624
(dp6610
sS'DewyBob12'
p6611
(dp6612
sS'RWeaper'
p6613
(dp6614
sg80
g6146
sg5358
(dp6615
sg4782
(dp6616
ssg602
(dp6617
sg604
(dp6618
S'Masterboog'
p6619
(dp6620
ssg606
(dp6621
sg608
(dp6622
sg610
(dp6623
sg612
(dp6624
sg614
(dp6625
sg616
(dp6626
sg618
(dp6627
sg620
(dp6628
sg622
(dp6629
S'Duncan'
p6630
g6488
ssg624
(dp6631
sg626
(dp6632
sg628
(dp6633
sg630
(dp6634
sg632
(dp6635
sg634
(dp6636
g752
(dp6637
sS'Killjoy'
p6638
(dp6639
sg3644
(dp6640
sg6261
(dp6641
sg5264
(dp6642
sS'Fennec'
p6643
(dp6644
sg4998
(dp6645
ssg636
(dp6646
sg638
(dp6647
sg640
(dp6648
g950
(dp6649
sS'bajira'
p6650
(dp6651
sS'Brand0n3500'
p6652
(dp6653
sS'Fennec'
p6654
(dp6655
sg4016
(dp6656
sg4998
(dp6657
ssg642
(dp6658
sg644
(dp6659
sg646
(dp6660
sg648
(dp6661
sg650
(dp6662
sg652
(dp6663
sg654
(dp6664
sg656
(dp6665
sg658
(dp6666
sg660
(dp6667
sg662
(dp6668
sg664
(dp6669
sg666
(dp6670
sg668
(dp6671
sg670
(dp6672
sg672
(dp6673
sg674
(dp6674
sg676
(dp6675
sg678
(dp6676
sg680
(dp6677
sg682
(dp6678
sg684
(dp6679
sg686
(dp6680
sg688
(dp6681
sg690
(dp6682
sg692
(dp6683
S'Duncan'
p6684
g6487
ssg694
(dp6685
sg696
(dp6686
sg698
(dp6687
sg700
(dp6688
sg702
(dp6689
sg704
(dp6690
sg706
(dp6691
sg708
(dp6692
sg710
(dp6693
S'tritbaumber'
p6694
(dp6695
ssg712
(dp6696
sg714
(dp6697
sg716
(dp6698
sg718
(dp6699
sg720
(dp6700
g1512
(dp6701
sS'TheYellowMan'
p6702
g6651
sS'eet'
p6703
(dp6704
sg4320
(dp6705
sS'zab%F0%9F%8D%8B'
p6706
(dp6707
sg6329
(dp6708
ssg722
(dp6709
sg724
(dp6710
sg726
(dp6711
g4320
(dp6712
sS'PlayerZ3D'
p6713
(dp6714
ssg728
(dp6715
sg730
(dp6716
g384
g6422
sS'Captain Fetus'
p6717
(dp6718
sg3180
(dp6719
sg3644
(dp6720
sS'Aesthetic Bagel'
p6721
(dp6722
sg3820
(dp6723
ssg732
(dp6724
sg734
(dp6725
sg736
(dp6726
sg738
(dp6727
sg740
(dp6728
sg742
(dp6729
sg744
(dp6730
sg746
(dp6731
sg748
(dp6732
sg750
(dp6733
g6273
(dp6734
ssg752
(dp6735
g3872
(dp6736
sS'jamdaddy'
p6737
g6276
sg1212
(dp6738
sS'xavvypls'
p6739
g6578
sS'WizardCroissant'
p6740
(dp6741
sg1884
(dp6742
sS'joshyouart'
p6743
(dp6744
sS'Yntec'
p6745
(dp6746
sS'PerroLaser'
p6747
(dp6748
sS'manuel fm'
p6749
g6637
sS'Sho-bo'
p6750
(dp6751
ssg754
(dp6752
g5264
(dp6753
ssg756
(dp6754
sg758
(dp6755
sg760
(dp6756
sg762
(dp6757
g3644
(dp6758
ssg764
(dp6759
sg766
(dp6760
sg768
(dp6761
sg770
(dp6762
S'Potatopeelerkind'
p6763
(dp6764
ssg772
(dp6765
sg774
(dp6766
sg776
(dp6767
sg778
(dp6768
sg780
(dp6769
sg782
(dp6770
sg784
(dp6771
sg786
(dp6772
sg788
(dp6773
sg790
(dp6774
sg792
(dp6775
sg794
(dp6776
sg796
(dp6777
sg798
(dp6778
sg800
(dp6779
sg802
(dp6780
sg804
(dp6781
sg806
(dp6782
sg808
(dp6783
sg810
(dp6784
sg812
(dp6785
S'NurseKae'
p6786
(dp6787
ssg814
(dp6788
sg816
(dp6789
sg818
(dp6790
sg820
(dp6791
sg822
(dp6792
sg824
(dp6793
sg826
(dp6794
sg828
(dp6795
sg830
(dp6796
sg832
(dp6797
sg834
(dp6798
sg836
(dp6799
sg838
(dp6800
sg840
(dp6801
sg842
(dp6802
sg844
(dp6803
sg846
(dp6804
sg848
(dp6805
sg850
(dp6806
sg852
(dp6807
sg854
(dp6808
g5908
(dp6809
sS'EXODIA_OBLITERATE'
p6810
g6117
ssg856
(dp6811
sg858
(dp6812
sg860
(dp6813
S'polar'
p6814
(dp6815
sS'YellowSheep'
p6816
(dp6817
sS'Painterjosh'
p6818
(dp6819
sg4320
(dp6820
sg4016
(dp6821
sS'HiveMind'
p6822
(dp6823
sg1868
(dp6824
ssg862
(dp6825
sg864
(dp6826
g30
g6110
ssg866
(dp6827
sg868
(dp6828
sg870
(dp6829
sg872
(dp6830
sg874
(dp6831
sg876
(dp6832
sg878
(dp6833
sg880
(dp6834
sg882
(dp6835
sg884
(dp6836
g3416
(dp6837
ssg886
(dp6838
sg888
(dp6839
sg890
(dp6840
sg892
(dp6841
S'jamdaddy'
p6842
g6287
ssg894
(dp6843
sg896
(dp6844
sg898
(dp6845
sg900
(dp6846
g3644
(dp6847
sg5262
(dp6848
ssg902
(dp6849
sg904
(dp6850
sg906
(dp6851
sg908
(dp6852
sg910
(dp6853
sg912
(dp6854
sg914
(dp6855
sg916
(dp6856
sg918
(dp6857
sg920
(dp6858
sg922
(dp6859
sg924
(dp6860
sg926
(dp6861
sg928
(dp6862
sg930
(dp6863
sg932
(dp6864
sg934
(dp6865
sg936
(dp6866
sg938
(dp6867
sg940
(dp6868
sg942
(dp6869
sg944
(dp6870
sg946
(dp6871
sg948
(dp6872
sg950
(dp6873
g4222
(dp6874
sg6702
g6649
ssg952
(dp6875
sg954
(dp6876
sg956
(dp6877
sg958
(dp6878
sg960
(dp6879
sg962
(dp6880
sg964
(dp6881
sg966
(dp6882
sg968
(dp6883
sg970
(dp6884
sg972
(dp6885
sg974
(dp6886
sg976
(dp6887
sg978
(dp6888
sg980
(dp6889
sg982
(dp6890
sg984
(dp6891
sg986
(dp6892
sg988
(dp6893
g5942
(dp6894
sg4674
(dp6895
sg2044
(dp6896
ssg990
(dp6897
sg992
(dp6898
sg994
(dp6899
sg996
(dp6900
sg998
(dp6901
sg1000
(dp6902
sg1002
(dp6903
sg1004
(dp6904
sg1006
(dp6905
sg1008
(dp6906
sg1010
(dp6907
sg1012
(dp6908
sg1014
(dp6909
sg1016
(dp6910
sg1018
(dp6911
sg1020
(dp6912
sg1022
(dp6913
sg1024
(dp6914
sg1026
(dp6915
sg1028
(dp6916
sg1030
(dp6917
sg1032
(dp6918
sg1034
(dp6919
sg1036
(dp6920
sg1038
(dp6921
sg1040
(dp6922
sg1042
(dp6923
sg1044
(dp6924
sg1046
(dp6925
sg1048
(dp6926
sg1050
(dp6927
sg1052
(dp6928
sg1054
(dp6929
sg1056
(dp6930
sg1058
(dp6931
sg1060
(dp6932
sg1062
(dp6933
g4026
(dp6934
sS'Nonexistent '
p6935
g6433
sg6145
g6583
sg4320
(dp6936
sS'Zweih%C3%A4nder '
p6937
(dp6938
sg1070
(dp6939
sg4016
(dp6940
sg1218
(dp6941
sg4374
(dp6942
sg5264
(dp6943
sS'Just Alex'
p6944
(dp6945
ssg1064
(dp6946
sg1066
(dp6947
g6291
(dp6948
sS'jamdaddy'
p6949
g6321
sS'AyeChi'
p6950
(dp6951
ssg1068
(dp6952
sg1070
(dp6953
S'Ramora'
p6954
(dp6955
sg4320
(dp6956
sS'lemmonbars'
p6957
(dp6958
sS'Handicrapped'
p6959
(dp6960
sg4016
(dp6961
sS'vaporflare'
p6962
(dp6963
sS'EdamameBean'
p6964
g6939
sS'PerroLaser'
p6965
(dp6966
sS'Delete'
p6967
(dp6968
ssg1072
(dp6969
sg1074
(dp6970
sg1076
(dp6971
sg1078
(dp6972
sg1080
(dp6973
sg1082
(dp6974
sg1084
(dp6975
sg1086
(dp6976
sg1088
(dp6977
sg1090
(dp6978
sg1092
(dp6979
sg1094
(dp6980
sg1096
(dp6981
sg1098
(dp6982
sg1100
(dp6983
sg1102
(dp6984
sg1104
(dp6985
sg1106
(dp6986
sg1108
(dp6987
sg1110
(dp6988
sg1112
(dp6989
sg1114
(dp6990
sg1116
(dp6991
sg1118
(dp6992
sg1120
(dp6993
sg1122
(dp6994
sg1124
(dp6995
sg1126
(dp6996
sg1128
(dp6997
sg1130
(dp6998
sg1132
(dp6999
sg1134
(dp7000
sg1136
(dp7001
sg1138
(dp7002
sg1140
(dp7003
S'Daxserus'
p7004
(dp7005
sS'Jyke The Person'
p7006
g6160
sg6713
(dp7007
sg4320
(dp7008
sg3644
(dp7009
sg586
g6567
ssg1142
(dp7010
sg1144
(dp7011
sg1146
(dp7012
sg1148
(dp7013
sg1150
(dp7014
sg1152
(dp7015
sg1154
(dp7016
sg1156
(dp7017
sg1158
(dp7018
sg1160
(dp7019
sg1162
(dp7020
sg1164
(dp7021
sg1166
(dp7022
sg1168
(dp7023
sg1170
(dp7024
sg1172
(dp7025
sg1174
(dp7026
sg1176
(dp7027
sg1178
(dp7028
sg1180
(dp7029
S'FJP'
p7030
g6234
sg3022
(dp7031
ssg1182
(dp7032
sg1184
(dp7033
sg1186
(dp7034
sg1188
(dp7035
sg1190
(dp7036
sg1192
(dp7037
sg1194
(dp7038
g3844
(dp7039
sg4320
(dp7040
sg1512
(dp7041
sS'jamdaddy'
p7042
g6311
ssg1196
(dp7043
sg1198
(dp7044
sg1200
(dp7045
S'jamdaddy'
p7046
g6312
ssg1202
(dp7047
sg1204
(dp7048
sg1206
(dp7049
sg1208
(dp7050
sg1210
(dp7051
sg1212
(dp7052
g752
g6738
sS'Captain Fetus'
p7053
(dp7054
sg5946
(dp7055
sS'Potato Man'
p7056
(dp7057
sg5260
(dp7058
sg2892
(dp7059
sg2624
(dp7060
sS'xavvypls'
p7061
g6609
sS'Handicrapped'
p7062
(dp7063
sg3644
(dp7064
sg322
g6377
sS'Masterboog'
p7065
(dp7066
sS'Star.skunk'
p7067
(dp7068
sS'Plutomics'
p7069
g6458
sS'Juleefish '
p7070
(dp7071
sg4064
(dp7072
sg2272
(dp7073
sg2928
(dp7074
sS'Markiegee55'
p7075
(dp7076
sg2536
(dp7077
sg3820
(dp7078
ssg1214
(dp7079
sg1216
(dp7080
sg1218
(dp7081
S'LizardPie34'
p7082
(dp7083
sS'The_Silent_Artist'
p7084
(dp7085
sS'EdamameBean'
p7086
g6941
ssg1220
(dp7087
sg1222
(dp7088
sg1224
(dp7089
sg1226
(dp7090
sg1228
(dp7091
sg1230
(dp7092
sg1232
(dp7093
sg1234
(dp7094
g6147
(dp7095
ssg1236
(dp7096
sg1238
(dp7097
sg1240
(dp7098
S'pastelgoosey'
p7099
(dp7100
sS'nooz'
p7101
(dp7102
ssg1242
(dp7103
sg1244
(dp7104
sg1246
(dp7105
sg1248
(dp7106
sg1250
(dp7107
sg1252
(dp7108
sg1254
(dp7109
sg1256
(dp7110
sg1258
(dp7111
sg1260
(dp7112
sg1262
(dp7113
sg1264
(dp7114
sg1266
(dp7115
sg1268
(dp7116
sg1270
(dp7117
sg1272
(dp7118
S'Soupid'
p7119
(dp7120
sS'AraTheWeirdo'
p7121
(dp7122
sS'Brand0n3500'
p7123
(dp7124
sS'RobTheWrecker'
p7125
(dp7126
sS'ripart'
p7127
(dp7128
sS'DewyBob12'
p7129
(dp7130
sS'The Green Flame'
p7131
(dp7132
ssg1274
(dp7133
sg1276
(dp7134
sg1278
(dp7135
sg1280
(dp7136
sg1282
(dp7137
sg1284
(dp7138
sg1286
(dp7139
sg1288
(dp7140
sg1290
(dp7141
sg1292
(dp7142
sg1294
(dp7143
sg1296
(dp7144
sg1298
(dp7145
g154
g6190
sg3034
(dp7146
sg6313
(dp7147
sg6291
(dp7148
sg4494
(dp7149
sg6325
(dp7150
sg2908
(dp7151
sS'MissSezia'
p7152
(dp7153
sg6132
(dp7154
ssg1300
(dp7155
sg1302
(dp7156
sg1304
(dp7157
sg1306
(dp7158
S'jamdaddy'
p7159
g6324
ssg1308
(dp7160
sg1310
(dp7161
sg1312
(dp7162
sg1314
(dp7163
sg1316
(dp7164
g710
g6695
sg5822
(dp7165
sg5834
(dp7166
ssg1318
(dp7167
sg1320
(dp7168
sg1322
(dp7169
sg1324
(dp7170
sg1326
(dp7171
sg1328
(dp7172
sg1330
(dp7173
sg1332
(dp7174
sg1334
(dp7175
sg1336
(dp7176
sg1338
(dp7177
sg1340
(dp7178
sg1342
(dp7179
sg1344
(dp7180
sg1346
(dp7181
sg1348
(dp7182
sg1350
(dp7183
sg1352
(dp7184
sg1354
(dp7185
sg1356
(dp7186
sg1358
(dp7187
sg1360
(dp7188
sg1362
(dp7189
sg1364
(dp7190
sg1366
(dp7191
sg1368
(dp7192
sg1370
(dp7193
sg1372
(dp7194
sg1374
(dp7195
sg1376
(dp7196
sg1378
(dp7197
sg1380
(dp7198
sg1382
(dp7199
sg1384
(dp7200
sg1386
(dp7201
sg1388
(dp7202
sg1390
(dp7203
g4286
(dp7204
ssg1392
(dp7205
sg1394
(dp7206
sg1396
(dp7207
sg1398
(dp7208
sg1400
(dp7209
sg1402
(dp7210
sg1404
(dp7211
sg1406
(dp7212
sg1408
(dp7213
sg1410
(dp7214
sg1412
(dp7215
sg1414
(dp7216
sg1416
(dp7217
sg1418
(dp7218
sg1420
(dp7219
g440
g6467
ssg1422
(dp7220
sg1424
(dp7221
sg1426
(dp7222
sg1428
(dp7223
sg1430
(dp7224
sg1432
(dp7225
sg1434
(dp7226
sg1436
(dp7227
sg1438
(dp7228
sg1440
(dp7229
sg1442
(dp7230
sg1444
(dp7231
sg1446
(dp7232
sg1448
(dp7233
sg1450
(dp7234
sg1452
(dp7235
sg1454
(dp7236
sg1456
(dp7237
sg1458
(dp7238
sg1460
(dp7239
sg1462
(dp7240
sg1464
(dp7241
sg1466
(dp7242
sg1468
(dp7243
sg1470
(dp7244
sg1472
(dp7245
sg1474
(dp7246
sg1476
(dp7247
sg1478
(dp7248
sg1480
(dp7249
sg1482
(dp7250
sg1484
(dp7251
sg1486
(dp7252
S'Soupid'
p7253
(dp7254
sS'Duncan'
p7255
g6493
sS'AraTheWeirdo'
p7256
(dp7257
sS'DewyBob12'
p7258
(dp7259
sS'RobTheWrecker'
p7260
(dp7261
sS'ripart'
p7262
(dp7263
sS'itsm'
p7264
(dp7265
sS'Brand0n3500'
p7266
(dp7267
sS'Origami Owl'
p7268
(dp7269
sg3070
(dp7270
ssg1488
(dp7271
sg1490
(dp7272
sg1492
(dp7273
sg1494
(dp7274
sg1496
(dp7275
g4494
(dp7276
sg6132
(dp7277
ssg1498
(dp7278
sg1500
(dp7279
sg1502
(dp7280
sg1504
(dp7281
sg1506
(dp7282
sg1508
(dp7283
sg1510
(dp7284
sg1512
(dp7285
g238
g6259
sS'Ramora'
p7286
(dp7287
sg4320
(dp7288
sS'vaporflare'
p7289
(dp7290
sg204
g6232
sg3820
(dp7291
sS'Captain Fetus'
p7292
(dp7293
sS'xavvypls'
p7294
g6580
sg1896
(dp7295
sg3644
(dp7296
sg5126
(dp7297
sg3554
(dp7298
sS'Plutomics'
p7299
g6454
sS'Painterjosh'
p7300
(dp7301
sS'Loco-L'
p7302
g6269
sS'lemmonbars'
p7303
(dp7304
sS'bajira'
p7305
g6701
sg1838
(dp7306
sS'RosesArePrickly'
p7307
g7041
sS'Star.skunk'
p7308
(dp7309
sg4674
(dp7310
sS'Beepadoobop'
p7311
(dp7312
sg538
g6535
sg1950
(dp7313
ssg1514
(dp7314
sg1516
(dp7315
sg1518
(dp7316
sg1520
(dp7317
sg1522
(dp7318
sg1524
(dp7319
sg1526
(dp7320
sg1528
(dp7321
sg1530
(dp7322
g4328
(dp7323
ssg1532
(dp7324
sg1534
(dp7325
sg1536
(dp7326
sg1538
(dp7327
sg1540
(dp7328
sg1542
(dp7329
sg1544
(dp7330
sg1546
(dp7331
g6145
g6590
sS'bajira'
p7332
g6707
ssg1548
(dp7333
sg1550
(dp7334
sg1552
(dp7335
sg1554
(dp7336
S'HaileyS'
p7337
(dp7338
ssg1556
(dp7339
sg1558
(dp7340
sg1560
(dp7341
sg1562
(dp7342
sg1564
(dp7343
sg1566
(dp7344
sg1568
(dp7345
sg1570
(dp7346
sg1572
(dp7347
sg1574
(dp7348
sg1576
(dp7349
sg1578
(dp7350
sg1580
(dp7351
sg1582
(dp7352
sg1584
(dp7353
S'jamdaddy'
p7354
g6323
ssg1586
(dp7355
sg1588
(dp7356
g5264
(dp7357
sg6273
(dp7358
ssg1590
(dp7359
sg1592
(dp7360
sg1594
(dp7361
sg1596
(dp7362
sg1598
(dp7363
sg1600
(dp7364
g6619
(dp7365
sg770
g6764
ssg1602
(dp7366
g1718
(dp7367
ssg1604
(dp7368
sg1606
(dp7369
g4522
(dp7370
sS'Drawception guy'
p7371
(dp7372
ssg1608
(dp7373
sg1610
(dp7374
sg1612
(dp7375
sg1614
(dp7376
sg1616
(dp7377
sg1618
(dp7378
sg1620
(dp7379
sg1622
(dp7380
S'xavvypls'
p7381
g6589
sS'lemmonbars'
p7382
(dp7383
ssg1624
(dp7384
sg1626
(dp7385
sg1628
(dp7386
sg1630
(dp7387
sg1632
(dp7388
sg1634
(dp7389
sg1636
(dp7390
sg1638
(dp7391
sg1640
(dp7392
sg1642
(dp7393
sg1644
(dp7394
sg1646
(dp7395
sg1648
(dp7396
sg1650
(dp7397
sg1652
(dp7398
sg1654
(dp7399
sg1656
(dp7400
sg1658
(dp7401
sg1660
(dp7402
S'kurocartoonist'
p7403
(dp7404
ssg1662
(dp7405
sg1664
(dp7406
sg1666
(dp7407
sg1668
(dp7408
sg1670
(dp7409
sg1672
(dp7410
sg1674
(dp7411
sg1676
(dp7412
sg1678
(dp7413
g4310
(dp7414
ssg1680
(dp7415
sg1682
(dp7416
sg1684
(dp7417
sg1686
(dp7418
sg1688
(dp7419
sg1690
(dp7420
sg1692
(dp7421
sg1694
(dp7422
sg1696
(dp7423
S'joshyouart'
p7424
(dp7425
ssg1698
(dp7426
sg1700
(dp7427
g6313
(dp7428
sS'hasellete'
p7429
g7153
sg6291
(dp7430
sS'AyeChi'
p7431
(dp7432
ssg1702
(dp7433
sg1704
(dp7434
sg1706
(dp7435
sg1708
(dp7436
sg1710
(dp7437
sg1712
(dp7438
sg1714
(dp7439
sg1716
(dp7440
S'jamdaddy'
p7441
g6322
ssg1718
(dp7442
g1602
g7367
ssg1720
(dp7443
sg1722
(dp7444
sg1724
(dp7445
sg1726
(dp7446
sg1728
(dp7447
sg1730
(dp7448
sg1732
(dp7449
sg1734
(dp7450
sg1736
(dp7451
sg1738
(dp7452
sg1740
(dp7453
sg1742
(dp7454
sg1744
(dp7455
sg1746
(dp7456
sg1748
(dp7457
sg1750
(dp7458
sg1752
(dp7459
sg1754
(dp7460
sg1756
(dp7461
sg1758
(dp7462
g2660
(dp7463
ssg1760
(dp7464
sg1762
(dp7465
sg1764
(dp7466
sg1766
(dp7467
sg1768
(dp7468
sg1770
(dp7469
sg1772
(dp7470
sg1774
(dp7471
sg1776
(dp7472
sg1778
(dp7473
sg1780
(dp7474
sg1782
(dp7475
sg1784
(dp7476
sg1786
(dp7477
sg1788
(dp7478
sg1790
(dp7479
sg1792
(dp7480
sg1794
(dp7481
sg1796
(dp7482
sg1798
(dp7483
sg1800
(dp7484
sg1802
(dp7485
sg1804
(dp7486
sg1806
(dp7487
sg1808
(dp7488
sg1810
(dp7489
sg1812
(dp7490
sg1814
(dp7491
sg1816
(dp7492
sg1818
(dp7493
sg1820
(dp7494
sg1822
(dp7495
sg1824
(dp7496
sg1826
(dp7497
sg1828
(dp7498
g7099
(dp7499
ssg1830
(dp7500
sg1832
(dp7501
sg1834
(dp7502
sg1836
(dp7503
sg1838
(dp7504
g2646
(dp7505
sS'equality'
p7506
(dp7507
sS'Saltedice'
p7508
g6347
sg6145
g6603
sS'topgamer'
p7509
(dp7510
sg1512
g7306
sS'AppleYogurt'
p7511
(dp7512
sg2198
(dp7513
sg5942
(dp7514
sS'Roodles_Doodles'
p7515
(dp7516
sg6313
(dp7517
sS'Kumquat'
p7518
(dp7519
sg2044
(dp7520
sg3820
(dp7521
ssg1840
(dp7522
sg1842
(dp7523
sg1844
(dp7524
sg1846
(dp7525
sg1848
(dp7526
sg1850
(dp7527
sg1852
(dp7528
sg1854
(dp7529
g5108
(dp7530
ssg1856
(dp7531
sg1858
(dp7532
sg1860
(dp7533
sg1862
(dp7534
sg1864
(dp7535
sg1866
(dp7536
sg1868
(dp7537
S'Dogg'
p7538
g6824
ssg1870
(dp7539
sg1872
(dp7540
sg1874
(dp7541
sg1876
(dp7542
sg1878
(dp7543
g2930
(dp7544
sg2372
(dp7545
sg5628
(dp7546
sg5834
(dp7547
ssg1880
(dp7548
sg1882
(dp7549
sg1884
(dp7550
g752
g6742
sg384
g6418
sg1512
g7309
sg6457
g7068
sg2624
(dp7551
sg6145
g6605
sg2028
(dp7552
sS'DewyBob12'
p7553
(dp7554
sS'Markiegee55'
p7555
(dp7556
sg3644
(dp7557
sS'Potato Man'
p7558
(dp7559
sg2646
(dp7560
sS'Juleefish '
p7561
(dp7562
sS'RWeaper'
p7563
(dp7564
sg7099
(dp7565
sS'Sirius Solemn'
p7566
(dp7567
sS'nooz'
p7568
(dp7569
ssg1886
(dp7570
sg1888
(dp7571
sg1890
(dp7572
sg1892
(dp7573
sg1894
(dp7574
sg1896
(dp7575
g3898
(dp7576
sg1512
g7295
sg7508
g6349
sg4674
(dp7577
sg4120
(dp7578
ssg1898
(dp7579
sg1900
(dp7580
sg1902
(dp7581
sg1904
(dp7582
sg1906
(dp7583
sg1908
(dp7584
sg1910
(dp7585
sg1912
(dp7586
g7403
(dp7587
sg6457
g7057
sg6145
g6598
sg4016
(dp7588
sg3644
(dp7589
sg4222
(dp7590
sS'Star.skunk'
p7591
g7559
sg5798
(dp7592
sg6261
(dp7593
sg5264
(dp7594
ssg1914
(dp7595
sg1916
(dp7596
sg1918
(dp7597
sg1920
(dp7598
sg1922
(dp7599
sg1924
(dp7600
sg1926
(dp7601
sg1928
(dp7602
sg1930
(dp7603
sg1932
(dp7604
sg1934
(dp7605
sg1936
(dp7606
sg1938
(dp7607
S'Captain Fetus'
p7608
(dp7609
sS'carbonbased lifeform'
p7610
(dp7611
sS'ironically horny'
p7612
g7507
sg4674
(dp7613
sg2044
(dp7614
sg3820
(dp7615
ssg1940
(dp7616
S'polar'
p7617
(dp7618
sg4320
(dp7619
sS'Daxserus'
p7620
(dp7621
sS'Dragatile'
p7622
g7007
sS'diishii'
p7623
g6714
ssg1942
(dp7624
sg1944
(dp7625
sg1946
(dp7626
sg1948
(dp7627
sg1950
(dp7628
g1512
g7313
sg4356
(dp7629
ssg1952
(dp7630
sg1954
(dp7631
sg1956
(dp7632
sg1958
(dp7633
sg1960
(dp7634
sg1962
(dp7635
g2624
(dp7636
sS'Juleefish '
p7637
(dp7638
ssg1964
(dp7639
sg1966
(dp7640
g6217
(dp7641
sS'RoryTheFiend'
p7642
g6216
sg6219
(dp7643
sg2220
(dp7644
ssg1968
(dp7645
sg1970
(dp7646
sg1972
(dp7647
sg1974
(dp7648
sg1976
(dp7649
sg1978
(dp7650
sg1980
(dp7651
sg1982
(dp7652
sg1984
(dp7653
sg1986
(dp7654
sg1988
(dp7655
sg1990
(dp7656
sg1992
(dp7657
sg1994
(dp7658
sg1996
(dp7659
sg1998
(dp7660
sg2000
(dp7661
sg2002
(dp7662
sg2004
(dp7663
sg2006
(dp7664
sg2008
(dp7665
sg2010
(dp7666
sg2012
(dp7667
sg2014
(dp7668
sg2016
(dp7669
S'jamdaddy'
p7670
g6280
ssg2018
(dp7671
sg2020
(dp7672
sg2022
(dp7673
g56
g6130
ssg2024
(dp7674
sg2026
(dp7675
sg2028
(dp7676
g7591
g7552
sg6329
(dp7677
ssg2030
(dp7678
sg2032
(dp7679
sg2034
(dp7680
sg2036
(dp7681
sg2038
(dp7682
g6261
(dp7683
ssg2040
(dp7684
S'St Anger'
p7685
(dp7686
ssg2042
(dp7687
sg2044
(dp7688
S'Captain Fetus'
p7689
(dp7690
sS'ironically horny'
p7691
g7520
sS'equality'
p7692
g7614
sS'Chunky Squelch'
p7693
g6896
ssg2046
(dp7694
sg2048
(dp7695
sg2050
(dp7696
sg2052
(dp7697
sg2054
(dp7698
sg2056
(dp7699
sg2058
(dp7700
sg2060
(dp7701
sg2062
(dp7702
sg2064
(dp7703
sg2066
(dp7704
sg2068
(dp7705
sg2070
(dp7706
sg2072
(dp7707
sg2074
(dp7708
sg2076
(dp7709
sg2078
(dp7710
sg2080
(dp7711
sg2082
(dp7712
sg2084
(dp7713
sg2086
(dp7714
S'AraTheWeirdo'
p7715
(dp7716
sS'The Green Flame'
p7717
(dp7718
sS'RobTheWrecker'
p7719
(dp7720
sg6273
(dp7721
sS'Brand0n3500'
p7722
(dp7723
sg1486
g7263
sS'Origami Owl'
p7724
(dp7725
sg1272
g7128
ssg2088
(dp7726
sg2090
(dp7727
sg2092
(dp7728
sg2094
(dp7729
g1828
g7499
sg1240
g7100
sg6058
(dp7730
sg3644
(dp7731
sS'Markiegee55'
p7732
(dp7733
sS'Star.skunk'
p7734
g7565
ssg2096
(dp7735
sg2098
(dp7736
sg2100
(dp7737
sg2102
(dp7738
sg2104
(dp7739
sg2106
(dp7740
sg2108
(dp7741
sg2110
(dp7742
sg2112
(dp7743
sg2114
(dp7744
sg2116
(dp7745
sg2118
(dp7746
sg2120
(dp7747
sg2122
(dp7748
sg2124
(dp7749
sg2126
(dp7750
sg2128
(dp7751
g3634
(dp7752
ssg2130
(dp7753
sg2132
(dp7754
sg2134
(dp7755
g4674
(dp7756
sg2198
(dp7757
ssg2136
(dp7758
sg2138
(dp7759
sg2140
(dp7760
sg2142
(dp7761
sg2144
(dp7762
sg2146
(dp7763
sg2148
(dp7764
sg2150
(dp7765
sg2152
(dp7766
sg2154
(dp7767
sg2156
(dp7768
sg2158
(dp7769
sg2160
(dp7770
sg2162
(dp7771
sg2164
(dp7772
sg2166
(dp7773
sg2168
(dp7774
sg2170
(dp7775
sg2172
(dp7776
sg2174
(dp7777
sg2176
(dp7778
sg2178
(dp7779
sg2180
(dp7780
sg2182
(dp7781
sg2184
(dp7782
g5518
(dp7783
sS'SoupDuck'
p7784
g6445
sS'cyborgmeat'
p7785
g6246
ssg2186
(dp7786
sg2188
(dp7787
sg2190
(dp7788
sg2192
(dp7789
sg2194
(dp7790
S'harp00ns'
p7791
(dp7792
ssg2196
(dp7793
sg2198
(dp7794
S'ironically horny'
p7795
g7513
sS'carbonbased lifeform'
p7796
(dp7797
sS'lord fagquad'
p7798
g7757
ssg2200
(dp7799
S'rumioki'
p7800
(dp7801
ssg2202
(dp7802
sg2204
(dp7803
sg2206
(dp7804
sg2208
(dp7805
sg2210
(dp7806
sg2212
(dp7807
sg2214
(dp7808
sg2216
(dp7809
sg2218
(dp7810
sg2220
(dp7811
g1966
g7644
sg2676
(dp7812
sg4914
(dp7813
sg184
g6221
sg3950
(dp7814
ssg2222
(dp7815
sg2224
(dp7816
sg2226
(dp7817
sg2228
(dp7818
sg2230
(dp7819
S'wolversheens'
p7820
(dp7821
sg7508
g6351
ssg2232
(dp7822
sg2234
(dp7823
sg2236
(dp7824
sg2238
(dp7825
sg2240
(dp7826
sg2242
(dp7827
sg2244
(dp7828
sg2246
(dp7829
sg2248
(dp7830
sg2250
(dp7831
sg2252
(dp7832
sg2254
(dp7833
sg2256
(dp7834
sg2258
(dp7835
sg2260
(dp7836
sg2262
(dp7837
sg2264
(dp7838
sg2266
(dp7839
sg2268
(dp7840
sg2270
(dp7841
sg2272
(dp7842
S'SpaceMuse'
p7843
(dp7844
sg4328
(dp7845
sS'jamdaddy'
p7846
g6330
sg6457
g7073
sg5764
(dp7847
sS'Fabulfish'
p7848
g7677
sS'bajira'
p7849
g6708
sg2762
(dp7850
sg6273
(dp7851
sg5358
(dp7852
sg3476
(dp7853
sS'Brand0n3500'
p7854
(dp7855
sS'St Anger'
p7856
(dp7857
sS'Simply_Kali'
p7858
(dp7859
sS'The Burned Man'
p7860
(dp7861
ssg2274
(dp7862
sg2276
(dp7863
sg2278
(dp7864
sg2280
(dp7865
sg2282
(dp7866
sg2284
(dp7867
g5040
(dp7868
sg7538
g6817
sg4320
(dp7869
sS'Painterjosh'
p7870
(dp7871
sS'florille'
p7872
(dp7873
ssg2286
(dp7874
sg2288
(dp7875
sg2290
(dp7876
sg2292
(dp7877
sg2294
(dp7878
sg2296
(dp7879
sg2298
(dp7880
sg2300
(dp7881
sg2302
(dp7882
sg2304
(dp7883
sg2306
(dp7884
sg2308
(dp7885
sg2310
(dp7886
sg2312
(dp7887
sg2314
(dp7888
sg2316
(dp7889
sg2318
(dp7890
sg2320
(dp7891
sg2322
(dp7892
sg2324
(dp7893
sg2326
(dp7894
sg2328
(dp7895
sg2330
(dp7896
sg2332
(dp7897
sg2334
(dp7898
sg2336
(dp7899
sg2338
(dp7900
sg2340
(dp7901
sg2342
(dp7902
sg2344
(dp7903
sg2346
(dp7904
sg2348
(dp7905
g6273
(dp7906
ssg2350
(dp7907
sg2352
(dp7908
sg2354
(dp7909
sg2356
(dp7910
sg2358
(dp7911
sg2360
(dp7912
g3032
(dp7913
sg4328
(dp7914
sg476
g6489
sg4102
(dp7915
sg3906
(dp7916
sS'Marshdpotatoes '
p7917
(dp7918
sS'Bloooo'
p7919
(dp7920
sS'Pupsicle'
p7921
(dp7922
sg4110
(dp7923
sg5260
(dp7924
sg2830
(dp7925
sg6145
g6612
sS'InvaderChie'
p7926
(dp7927
sg3644
(dp7928
sS'Juleefish '
p7929
(dp7930
sg5752
(dp7931
sg4522
(dp7932
sg3364
(dp7933
sg1272
g7130
sS'LizardPie34'
p7934
(dp7935
sg3458
(dp7936
sg4546
(dp7937
sg5554
(dp7938
sg5670
(dp7939
sg7591
g7554
sg5358
(dp7940
sg2348
g7906
sS'Deduraptor'
p7941
g7851
sg254
g6274
sg2624
(dp7942
sg4180
(dp7943
sg2086
g7721
sg3216
(dp7944
sS'The Burned Man'
p7945
(dp7946
sS'Been13'
p7947
g7358
sg1486
g7259
sg750
g6734
ssg2362
(dp7948
sg2364
(dp7949
sg2366
(dp7950
sg2368
(dp7951
sg2370
(dp7952
sg2372
(dp7953
S'SAMiAm'
p7954
g7545
ssg2374
(dp7955
sg2376
(dp7956
sg2378
(dp7957
sg2380
(dp7958
sg2382
(dp7959
sg2384
(dp7960
sg2386
(dp7961
sg2388
(dp7962
sg2390
(dp7963
sg2392
(dp7964
sg2394
(dp7965
sg2396
(dp7966
sg2398
(dp7967
sg2400
(dp7968
sg2402
(dp7969
g5834
(dp7970
ssg2404
(dp7971
sg2406
(dp7972
sg2408
(dp7973
sg2410
(dp7974
sg2412
(dp7975
sg2414
(dp7976
sg2416
(dp7977
sg2418
(dp7978
sg2420
(dp7979
sg2422
(dp7980
sg2424
(dp7981
sg2426
(dp7982
sg2428
(dp7983
sg2430
(dp7984
sg2432
(dp7985
sg2434
(dp7986
sg2436
(dp7987
sg2438
(dp7988
sg2440
(dp7989
sg2442
(dp7990
sg2444
(dp7991
sg2446
(dp7992
sg2448
(dp7993
sg2450
(dp7994
sg2452
(dp7995
sg2454
(dp7996
sg2456
(dp7997
sg2458
(dp7998
sg2460
(dp7999
sg2462
(dp8000
sg2464
(dp8001
sg2466
(dp8002
sg2468
(dp8003
sg2470
(dp8004
sg2472
(dp8005
sg2474
(dp8006
sg2476
(dp8007
g6145
g6584
sg6273
g7920
ssg2478
(dp8008
sg2480
(dp8009
sg2482
(dp8010
sg2484
(dp8011
sg2486
(dp8012
sg2488
(dp8013
sg2490
(dp8014
sg2492
(dp8015
sg2494
(dp8016
sg2496
(dp8017
sg2498
(dp8018
sg2500
(dp8019
sg2502
(dp8020
sg2504
(dp8021
sg2506
(dp8022
sg2508
(dp8023
sg2510
(dp8024
sg2512
(dp8025
sg2514
(dp8026
sg2516
(dp8027
sg2518
(dp8028
sg2520
(dp8029
sg2522
(dp8030
sg2524
(dp8031
sg2526
(dp8032
sg2528
(dp8033
g384
g6424
sS'jamdaddy'
p8034
g6285
sg4540
(dp8035
sg7538
g6823
sS'ArelaEstudio'
p8036
g6205
sg5710
(dp8037
sg5308
(dp8038
sS'RWeaper'
p8039
(dp8040
sg5264
(dp8041
sg6316
(dp8042
ssg2530
(dp8043
sg2532
(dp8044
sg2534
(dp8045
sg2536
(dp8046
g6457
g7077
sg6619
(dp8047
sg6273
g7918
sS'cyborgmeat'
p8048
g6250
ssg2538
(dp8049
sg2540
(dp8050
sg2542
(dp8051
sg2544
(dp8052
sg2546
(dp8053
S'jamdaddy'
p8054
g6277
ssg2548
(dp8055
sg2550
(dp8056
sg2552
(dp8057
sg2554
(dp8058
sg2556
(dp8059
sg2558
(dp8060
sg2560
(dp8061
sg2562
(dp8062
g4374
(dp8063
sS'Nonexistent '
p8064
g6429
sS'Jack'
p8065
g6389
ssg2564
(dp8066
sg2566
(dp8067
sg2568
(dp8068
sg2570
(dp8069
sg2572
(dp8070
sg2574
(dp8071
sg2576
(dp8072
sg2578
(dp8073
sg2580
(dp8074
g7934
(dp8075
sg4320
(dp8076
sg6432
g6938
ssg2582
(dp8077
sg2584
(dp8078
sg2586
(dp8079
sg2588
(dp8080
sg2590
(dp8081
sg2592
(dp8082
sg2594
(dp8083
sg2596
(dp8084
g42
g6122
ssg2598
(dp8085
sg2600
(dp8086
sg2602
(dp8087
sg2604
(dp8088
sg2606
(dp8089
sg2608
(dp8090
sg2610
(dp8091
sg2612
(dp8092
sg2614
(dp8093
sg2616
(dp8094
sg2618
(dp8095
sg2620
(dp8096
sg2622
(dp8097
sg2624
(dp8098
S'Ramora'
p8099
(dp8100
sS'kurocartoonist'
p8101
(dp8102
sS'Painterjosh'
p8103
(dp8104
sS'y3liak'
p8105
g7060
sg5632
(dp8106
sS'xavvypls'
p8107
g6610
sg1962
g7636
sS'Sho-bo'
p8108
(dp8109
sS'DewyBob12'
p8110
g7942
sS'Masterboog'
p8111
(dp8112
sS'Star.skunk'
p8113
g7551
sS'Jack'
p8114
g6384
sg5234
(dp8115
sg3254
(dp8116
sS'Fennec'
p8117
(dp8118
ssg2626
(dp8119
sg2628
(dp8120
sg2630
(dp8121
sg2632
(dp8122
sg2634
(dp8123
sg2636
(dp8124
sg2638
(dp8125
sg2640
(dp8126
sg2642
(dp8127
sg2644
(dp8128
sg2646
(dp8129
S'superstar_pixie'
p8130
(dp8131
sS'jamdaddy'
p8132
g6282
sS'Tamakid'
p8133
g6536
sS'ironically horny'
p8134
g7505
sS'Star.skunk'
p8135
g7560
sS'The Burned Man'
p8136
(dp8137
ssg2648
(dp8138
sg2650
(dp8139
sg2652
(dp8140
sg2654
(dp8141
sg2656
(dp8142
sg2658
(dp8143
sg2660
(dp8144
g1758
g7463
ssg2662
(dp8145
sg2664
(dp8146
sg2666
(dp8147
sg2668
(dp8148
sg2670
(dp8149
sg2672
(dp8150
sg2674
(dp8151
sg2676
(dp8152
g6217
(dp8153
sg2220
g7812
ssg2678
(dp8154
sg2680
(dp8155
sg2682
(dp8156
sg2684
(dp8157
sg2686
(dp8158
sg2688
(dp8159
sg2690
(dp8160
sg2692
(dp8161
sg2694
(dp8162
sg2696
(dp8163
sg2698
(dp8164
sg2700
(dp8165
S'prick'
p8166
g7102
sg6145
g6595
sg4320
(dp8167
sS'lemmonbars'
p8168
(dp8169
sg7591
g7569
sg5678
(dp8170
sS'Fennec'
p8171
(dp8172
ssg2702
(dp8173
g4834
(dp8174
sg5222
(dp8175
sg7403
(dp8176
ssg2704
(dp8177
sg2706
(dp8178
sg2708
(dp8179
S'jamdaddy'
p8180
g6308
ssg2710
(dp8181
sg2712
(dp8182
sg2714
(dp8183
sg2716
(dp8184
sg2718
(dp8185
sg2720
(dp8186
g384
g6420
sg3644
(dp8187
sg1512
g7312
sg4846
(dp8188
ssg2722
(dp8189
sg2724
(dp8190
sg2726
(dp8191
sg2728
(dp8192
sg2730
(dp8193
sg2732
(dp8194
sg2734
(dp8195
sg2736
(dp8196
sg2738
(dp8197
sg2740
(dp8198
sg2742
(dp8199
sg2744
(dp8200
sg2746
(dp8201
sg2748
(dp8202
sg2750
(dp8203
sg2752
(dp8204
sg2754
(dp8205
sg2756
(dp8206
sg2758
(dp8207
sg2760
(dp8208
sg2762
(dp8209
g6329
g7850
sg3128
(dp8210
sg4048
(dp8211
ssg2764
(dp8212
sg2766
(dp8213
sg2768
(dp8214
sg2770
(dp8215
sg2772
(dp8216
sg2774
(dp8217
sg2776
(dp8218
sg2778
(dp8219
sg2780
(dp8220
sg2782
(dp8221
sg2784
(dp8222
sg2786
(dp8223
sg2788
(dp8224
sg2790
(dp8225
sg2792
(dp8226
sg2794
(dp8227
sg2796
(dp8228
sg2798
(dp8229
sg2800
(dp8230
sg2802
(dp8231
sg2804
(dp8232
sg2806
(dp8233
sg2808
(dp8234
sg2810
(dp8235
sg2812
(dp8236
sg2814
(dp8237
sg2816
(dp8238
sg2818
(dp8239
sg2820
(dp8240
sg2822
(dp8241
sg2824
(dp8242
sg2826
(dp8243
g4328
(dp8244
sg6457
g7076
sg7591
g7556
sg4858
(dp8245
sg3644
(dp8246
sS'St Anger'
p8247
(dp8248
sg7099
g7733
ssg2828
(dp8249
sg2830
(dp8250
S'Brand0n3500'
p8251
(dp8252
sS'DewyBob12'
p8253
g7925
ssg2832
(dp8254
sg2834
(dp8255
sg2836
(dp8256
sg2838
(dp8257
sg2840
(dp8258
sg2842
(dp8259
sg2844
(dp8260
sg2846
(dp8261
sg2848
(dp8262
sg2850
(dp8263
sg2852
(dp8264
sg2854
(dp8265
sg2856
(dp8266
sg2858
(dp8267
sg2860
(dp8268
sg2862
(dp8269
sg2864
(dp8270
sg2866
(dp8271
sg2868
(dp8272
sg2870
(dp8273
sg2872
(dp8274
sg2874
(dp8275
sg2876
(dp8276
sg2878
(dp8277
sg2880
(dp8278
sg2882
(dp8279
sg2884
(dp8280
sg2886
(dp8281
sg2888
(dp8282
S'jamdaddy'
p8283
g6302
ssg2890
(dp8284
sg2892
(dp8285
g6457
g7059
ssg2894
(dp8286
g6304
(dp8287
sg6713
g7618
sg7538
g6815
sg4320
(dp8288
sg4016
(dp8289
sg5354
(dp8290
sS'oxyd'
p8291
(dp8292
sg5264
(dp8293
ssg2896
(dp8294
sg2898
(dp8295
sg2900
(dp8296
sg2902
(dp8297
sg2904
(dp8298
sg2906
(dp8299
sg2908
(dp8300
S'hasellete'
p8301
g7151
ssg2910
(dp8302
sg2912
(dp8303
sg2914
(dp8304
sg2916
(dp8305
sg2918
(dp8306
sg2920
(dp8307
sg2922
(dp8308
sg2924
(dp8309
sg2926
(dp8310
sg2928
(dp8311
g7934
(dp8312
sg6145
g6614
sg7591
g7564
sS'HiveMind'
p8313
g8040
sg6457
g7074
ssg2930
(dp8314
S'SAMiAm'
p8315
g7544
ssg2932
(dp8316
sg2934
(dp8317
sg2936
(dp8318
sg2938
(dp8319
sg2940
(dp8320
sg2942
(dp8321
sg2944
(dp8322
sg2946
(dp8323
sg2948
(dp8324
g1554
g7338
sg5264
(dp8325
ssg2950
(dp8326
sg2952
(dp8327
sg2954
(dp8328
sg2956
(dp8329
sg2958
(dp8330
sg2960
(dp8331
sg2962
(dp8332
sg2964
(dp8333
sg2966
(dp8334
sg2968
(dp8335
sg2970
(dp8336
sg2972
(dp8337
sg2974
(dp8338
sg2976
(dp8339
sg2978
(dp8340
sg2980
(dp8341
sg2982
(dp8342
sg2984
(dp8343
sg2986
(dp8344
sg2988
(dp8345
sg2990
(dp8346
sg2992
(dp8347
sg2994
(dp8348
sg2996
(dp8349
sg2998
(dp8350
sg3000
(dp8351
sg3002
(dp8352
sg3004
(dp8353
sg3006
(dp8354
sg3008
(dp8355
sg3010
(dp8356
sg3012
(dp8357
sg3014
(dp8358
sg3016
(dp8359
sg3018
(dp8360
sg3020
(dp8361
sg3022
(dp8362
g1180
g7031
ssg3024
(dp8363
sg3026
(dp8364
sg3028
(dp8365
sg3030
(dp8366
g6702
g6655
sg2624
g8118
sg6147
(dp8367
sg4016
(dp8368
sS'ThatOneDude'
p8369
g6516
sg4222
(dp8370
sS'Handicrapped'
p8371
(dp8372
sS'manuel fm'
p8373
g6644
sg7101
g8172
sS'Juleefish '
p8374
(dp8375
ssg3032
(dp8376
g6329
g7844
sg6273
g7913
ssg3034
(dp8377
S'hasellete'
p8378
g7146
ssg3036
(dp8379
sg3038
(dp8380
sg3040
(dp8381
sg3042
(dp8382
sg3044
(dp8383
sg3046
(dp8384
sg3048
(dp8385
sg3050
(dp8386
sg3052
(dp8387
sg3054
(dp8388
sg3056
(dp8389
sg3058
(dp8390
sg3060
(dp8391
sg3062
(dp8392
sg3064
(dp8393
sg3066
(dp8394
sg3068
(dp8395
sg3070
(dp8396
g1486
g7270
sS'The Green Flame'
p8397
(dp8398
ssg3072
(dp8399
sg3074
(dp8400
sg3076
(dp8401
sg3078
(dp8402
sg3080
(dp8403
g4016
(dp8404
ssg3082
(dp8405
sg3084
(dp8406
sg3086
(dp8407
sg3088
(dp8408
sg3090
(dp8409
sg3092
(dp8410
sg3094
(dp8411
sg3096
(dp8412
sg3098
(dp8413
sg3100
(dp8414
sg3102
(dp8415
sg3104
(dp8416
sg3106
(dp8417
sg3108
(dp8418
sg3110
(dp8419
sg3112
(dp8420
sg3114
(dp8421
S'polar'
p8422
g8292
sg4320
(dp8423
sS'Daxserus'
p8424
(dp8425
ssg3116
(dp8426
sg3118
(dp8427
sg3120
(dp8428
sg3122
(dp8429
sg3124
(dp8430
sg3126
(dp8431
sg3128
(dp8432
S'DonutOrca'
p8433
g8210
ssg3130
(dp8434
sg3132
(dp8435
sg3134
(dp8436
sg3136
(dp8437
sg3138
(dp8438
sg3140
(dp8439
sg3142
(dp8440
sg3144
(dp8441
sg3146
(dp8442
sg3148
(dp8443
sg3150
(dp8444
sg3152
(dp8445
sg3154
(dp8446
sg3156
(dp8447
sg3158
(dp8448
sg3160
(dp8449
sg3162
(dp8450
sg3164
(dp8451
g2200
g7801
ssg3166
(dp8452
sg3168
(dp8453
sg3170
(dp8454
sg3172
(dp8455
sg3174
(dp8456
sg3176
(dp8457
sg3178
(dp8458
sg3180
(dp8459
S'LookItsMrT'
p8460
g6719
sS'joshyouart'
p8461
(dp8462
ssg3182
(dp8463
sg3184
(dp8464
sg3186
(dp8465
sg3188
(dp8466
sg3190
(dp8467
sg3192
(dp8468
sg3194
(dp8469
sg3196
(dp8470
sg3198
(dp8471
sg3200
(dp8472
sg3202
(dp8473
sg3204
(dp8474
sg3206
(dp8475
sg3208
(dp8476
sg3210
(dp8477
sg3212
(dp8478
sg3214
(dp8479
sg3216
(dp8480
S'manuel fm'
p8481
g6639
sg4222
(dp8482
sg6273
g7944
ssg3218
(dp8483
sg3220
(dp8484
sg3222
(dp8485
sg3224
(dp8486
sg3226
(dp8487
sg3228
(dp8488
sg3230
(dp8489
sg3232
(dp8490
sg3234
(dp8491
sg3236
(dp8492
sg3238
(dp8493
sg3240
(dp8494
sg3242
(dp8495
sg3244
(dp8496
sg3246
(dp8497
S'Captain Fetus'
p8498
(dp8499
sS'ironically horny'
p8500
g7510
sg4674
(dp8501
sg3820
(dp8502
ssg3248
(dp8503
sg3250
(dp8504
sg3252
(dp8505
sg3254
(dp8506
g2624
g8116
sg6273
g7927
sg7403
(dp8507
sS'jamdaddy'
p8508
g6298
sS'Juleefish '
p8509
(dp8510
ssg3256
(dp8511
sg3258
(dp8512
sg3260
(dp8513
sg3262
(dp8514
sg3264
(dp8515
sg3266
(dp8516
sg3268
(dp8517
sg3270
(dp8518
sg3272
(dp8519
sg3274
(dp8520
sg3276
(dp8521
sg3278
(dp8522
sg3280
(dp8523
sg3282
(dp8524
sg3284
(dp8525
g6325
(dp8526
ssg3286
(dp8527
sg3288
(dp8528
sg3290
(dp8529
sg3292
(dp8530
sg3294
(dp8531
sg3296
(dp8532
sg3298
(dp8533
sg3300
(dp8534
sg3302
(dp8535
sg3304
(dp8536
sg3306
(dp8537
sg3308
(dp8538
sg3310
(dp8539
sg3312
(dp8540
sg3314
(dp8541
sg3316
(dp8542
sg3318
(dp8543
sg3320
(dp8544
sg3322
(dp8545
sg3324
(dp8546
sg3326
(dp8547
sg3328
(dp8548
sg3330
(dp8549
sg3332
(dp8550
sg3334
(dp8551
sg3336
(dp8552
sg3338
(dp8553
sg3340
(dp8554
sg3342
(dp8555
sg3344
(dp8556
sg3346
(dp8557
sg3348
(dp8558
sg3350
(dp8559
sg3352
(dp8560
sg3354
(dp8561
sg3356
(dp8562
sg3358
(dp8563
sg3360
(dp8564
sg3362
(dp8565
sg3364
(dp8566
S'Soupid'
p8567
(dp8568
sg7715
(dp8569
sg6273
g7933
sS'RobTheWrecker'
p8570
(dp8571
sS'ripart'
p8572
g7725
sg1486
g7269
ssg3366
(dp8573
sg3368
(dp8574
sg3370
(dp8575
sg3372
(dp8576
sg3374
(dp8577
sg3376
(dp8578
sg3378
(dp8579
sg3380
(dp8580
sg3382
(dp8581
sg3384
(dp8582
sg3386
(dp8583
sg3388
(dp8584
sg3390
(dp8585
sg3392
(dp8586
sg3394
(dp8587
sg3396
(dp8588
sg3398
(dp8589
sg3400
(dp8590
sg3402
(dp8591
sg3404
(dp8592
sg3406
(dp8593
sg3408
(dp8594
sg3410
(dp8595
sg3412
(dp8596
sg3414
(dp8597
g1512
g7287
sg4146
(dp8598
sS'Painterjosh'
p8599
(dp8600
sg2624
g8100
sS'xavvypls'
p8601
g6579
sS'ArelaEstudio'
p8602
g6203
sg1070
g6955
sg4016
(dp8603
sS'Juleefish '
p8604
(dp8605
sS'PerroLaser'
p8606
(dp8607
sS'Delete'
p8608
(dp8609
ssg3416
(dp8610
S'Roodles_Doodles'
p8611
(dp8612
sg884
g6837
sg812
g6787
sg6036
(dp8613
ssg3418
(dp8614
sg3420
(dp8615
sg3422
(dp8616
sg3424
(dp8617
sg3426
(dp8618
sg3428
(dp8619
g4120
(dp8620
sg7508
g6344
sS'daisy key chain'
p8621
g7821
ssg3430
(dp8622
sg3432
(dp8623
sg3434
(dp8624
sg3436
(dp8625
sg3438
(dp8626
sg3440
(dp8627
sg3442
(dp8628
sg3444
(dp8629
sg3446
(dp8630
sg3448
(dp8631
sg3450
(dp8632
sg3452
(dp8633
sg3454
(dp8634
sg3456
(dp8635
sg3458
(dp8636
g6273
g7936
ssg3460
(dp8637
sg3462
(dp8638
sg3464
(dp8639
sg3466
(dp8640
sg3468
(dp8641
sg3470
(dp8642
sg3472
(dp8643
sg3474
(dp8644
sg3476
(dp8645
g6329
g7853
ssg3478
(dp8646
sg3480
(dp8647
sg3482
(dp8648
g6132
(dp8649
ssg3484
(dp8650
g3414
g8609
sS'jamdaddy'
p8651
g6317
sg1070
g6968
sg4016
(dp8652
sS'HiveMind'
p8653
g8042
sS'PerroLaser'
p8654
(dp8655
sS'Handicrapped'
p8656
(dp8657
ssg3486
(dp8658
sg3488
(dp8659
sg3490
(dp8660
sg3492
(dp8661
sg3494
(dp8662
sg3496
(dp8663
sg3498
(dp8664
sg3500
(dp8665
sg3502
(dp8666
sg3504
(dp8667
sg3506
(dp8668
sg3508
(dp8669
sg3510
(dp8670
sg3512
(dp8671
sg3514
(dp8672
sg3516
(dp8673
sg3518
(dp8674
sg3520
(dp8675
sg3522
(dp8676
sg3524
(dp8677
sg3526
(dp8678
sg3528
(dp8679
sg3530
(dp8680
sg3532
(dp8681
sg3534
(dp8682
sg3536
(dp8683
sg3538
(dp8684
sg3540
(dp8685
sg3542
(dp8686
sg3544
(dp8687
sg3546
(dp8688
sg3548
(dp8689
sg3550
(dp8690
sg3552
(dp8691
sg3554
(dp8692
g1512
g7298
sg5906
(dp8693
ssg3556
(dp8694
sg3558
(dp8695
sg3560
(dp8696
sg3562
(dp8697
sg3564
(dp8698
sg3566
(dp8699
sg3568
(dp8700
sg3570
(dp8701
sg3572
(dp8702
sg3574
(dp8703
sg3576
(dp8704
sg3578
(dp8705
sg3580
(dp8706
sg3582
(dp8707
sg3584
(dp8708
sg3586
(dp8709
sg3588
(dp8710
sg3590
(dp8711
sg3592
(dp8712
sg3594
(dp8713
sg3596
(dp8714
sg3598
(dp8715
g6145
g6596
sS'Deduraptor'
p8716
g7859
ssg3600
(dp8717
g4284
(dp8718
ssg3602
(dp8719
sg3604
(dp8720
sg3606
(dp8721
S'jamdaddy'
p8722
g6309
ssg3608
(dp8723
sg3610
(dp8724
sg3612
(dp8725
sg3614
(dp8726
sg3616
(dp8727
sg3618
(dp8728
sg3620
(dp8729
sg3622
(dp8730
sg3624
(dp8731
sg3626
(dp8732
sg3628
(dp8733
S'ThatOneDude'
p8734
g6513
ssg3630
(dp8735
sg3632
(dp8736
sg3634
(dp8737
g2128
g7752
ssg3636
(dp8738
sg3638
(dp8739
sg3640
(dp8740
sg3642
(dp8741
sg3644
(dp8742
g752
g6751
sg5294
(dp8743
sS'Mojomos'
p8744
g7296
sg762
g6758
sS'Dragatile'
p8745
g7009
sg2826
g8246
sg4016
(dp8746
sg4222
(dp8747
sS'Typical_Hetero_Human'
p8748
(dp8749
sg3918
(dp8750
sS'Handicrapped'
p8751
(dp8752
sg4338
(dp8753
sg596
g6575
sS'xavvypls'
p8754
g6591
sg410
g6444
sg4240
(dp8755
sg4136
(dp8756
sg900
g6847
sS'Potato Man'
p8757
g7589
sg248
g6268
sS'Star.skunk'
p8758
g7557
sS'LizardPie34'
p8759
(dp8760
sg2720
g8187
sS'manuel fm'
p8761
g6640
sg2094
g7731
sg5076
(dp8762
sS'kurocartoonist'
p8763
(dp8764
sS'y3liak'
p8765
g7064
sg2624
g8109
sg2360
g7928
sg730
g6720
ssg3646
(dp8766
sg3648
(dp8767
sg3650
(dp8768
sg3652
(dp8769
sg3654
(dp8770
sg3656
(dp8771
g4016
(dp8772
ssg3658
(dp8773
sg3660
(dp8774
g4874
(dp8775
sg6313
(dp8776
sg6132
(dp8777
ssg3662
(dp8778
sg3664
(dp8779
sg3666
(dp8780
sg3668
(dp8781
sg3670
(dp8782
sg3672
(dp8783
sg3674
(dp8784
sg3676
(dp8785
sg3678
(dp8786
sg3680
(dp8787
sg3682
(dp8788
sg3684
(dp8789
sg3686
(dp8790
sg3688
(dp8791
sg3690
(dp8792
sg3692
(dp8793
sg3694
(dp8794
sg3696
(dp8795
sg3698
(dp8796
sg3700
(dp8797
g4320
(dp8798
ssg3702
(dp8799
sg3704
(dp8800
sg3706
(dp8801
sg3708
(dp8802
sg3710
(dp8803
sg3712
(dp8804
sg3714
(dp8805
sg3716
(dp8806
sg3718
(dp8807
sg3720
(dp8808
sg3722
(dp8809
sg3724
(dp8810
sg3726
(dp8811
sg3728
(dp8812
sg3730
(dp8813
sg3732
(dp8814
sg3734
(dp8815
sg3736
(dp8816
sg3738
(dp8817
sg3740
(dp8818
sg3742
(dp8819
sg3744
(dp8820
sg3746
(dp8821
sg3748
(dp8822
sg3750
(dp8823
sg3752
(dp8824
sg3754
(dp8825
sg3756
(dp8826
sg3758
(dp8827
sg3760
(dp8828
sg3762
(dp8829
sg3764
(dp8830
sg3766
(dp8831
sg3768
(dp8832
sg3770
(dp8833
sg3772
(dp8834
sg3774
(dp8835
sg3776
(dp8836
sg3778
(dp8837
sg3780
(dp8838
sg3782
(dp8839
sg3784
(dp8840
sg3786
(dp8841
sg3788
(dp8842
sg3790
(dp8843
sg3792
(dp8844
sg3794
(dp8845
sg3796
(dp8846
sg3798
(dp8847
sg3800
(dp8848
sg3802
(dp8849
S'jamdaddy'
p8850
g6315
ssg3804
(dp8851
sg3806
(dp8852
sg3808
(dp8853
sg3810
(dp8854
sg3812
(dp8855
sg3814
(dp8856
sg3816
(dp8857
sg3818
(dp8858
sg3820
(dp8859
S'Mojomos'
p8860
g7291
sS'equality'
p8861
g7615
sS'jamdaddy'
p8862
g6301
sS'y3liak'
p8863
g7078
sS'carbonbased lifeform'
p8864
(dp8865
sS'ironically horny'
p8866
g7521
sS'joshyouart'
p8867
(dp8868
sS'topgamer'
p8869
g8502
sS'LookItsMrT'
p8870
g6723
sS'Kumquat'
p8871
(dp8872
ssg3822
(dp8873
sg3824
(dp8874
sg3826
(dp8875
sg3828
(dp8876
sg3830
(dp8877
sg3832
(dp8878
sg3834
(dp8879
sg3836
(dp8880
sg3838
(dp8881
S'ironically horny'
p8882
g7512
sg4674
(dp8883
ssg3840
(dp8884
sg3842
(dp8885
sg3844
(dp8886
g6310
g7039
ssg3846
(dp8887
sg3848
(dp8888
sg3850
(dp8889
sg3852
(dp8890
sg3854
(dp8891
sg3856
(dp8892
sg3858
(dp8893
sg3860
(dp8894
sg3862
(dp8895
sg3864
(dp8896
sg3866
(dp8897
sg3868
(dp8898
sg3870
(dp8899
sg3872
(dp8900
g752
g6736
sg2702
g8176
sg1660
g7404
sg2624
g8102
sS'InvaderChie'
p8901
g8507
sg3644
g8764
sS'Potato Man'
p8902
g7587
sS'Juleefish '
p8903
(dp8904
ssg3874
(dp8905
sg3876
(dp8906
sg3878
(dp8907
sg3880
(dp8908
sg3882
(dp8909
sg3884
(dp8910
sg3886
(dp8911
sg3888
(dp8912
sg3890
(dp8913
sg3892
(dp8914
sg3894
(dp8915
sg3896
(dp8916
sg3898
(dp8917
S'aniesque'
p8918
g7576
ssg3900
(dp8919
sg3902
(dp8920
sg3904
(dp8921
sg3906
(dp8922
g8567
(dp8923
sg6684
g6492
sg7715
(dp8924
sg6273
g7916
sg8570
(dp8925
sg8572
g7718
sg4836
(dp8926
sg1272
g7132
sS'BrokenWatermelon'
p8927
g8398
ssg3908
(dp8928
sg3910
(dp8929
sg3912
(dp8930
sg3914
(dp8931
sg3916
(dp8932
sg3918
(dp8933
S'rockinashy'
p8934
(dp8935
sg3644
g8750
sg6273
g7922
ssg3920
(dp8936
sg3922
(dp8937
sg3924
(dp8938
sg3926
(dp8939
sg3928
(dp8940
sg3930
(dp8941
sg3932
(dp8942
sg3934
(dp8943
sg3936
(dp8944
sg3938
(dp8945
sg3940
(dp8946
sg3942
(dp8947
sg3944
(dp8948
sg3946
(dp8949
sg3948
(dp8950
sg3950
(dp8951
S'Lux'
p8952
g7641
sS'MiYEET'
p8953
g8153
sS'JThePilot'
p8954
(dp8955
sS'RoryTheFiend'
p8956
g6218
sg2220
g7814
ssg3952
(dp8957
sg3954
(dp8958
sg3956
(dp8959
sg3958
(dp8960
sg3960
(dp8961
sg3962
(dp8962
sg3964
(dp8963
sg3966
(dp8964
sg3968
(dp8965
sg3970
(dp8966
sg3972
(dp8967
g7515
(dp8968
sS'Mizuki-chan'
p8969
(dp8970
sg6132
(dp8971
sg6325
(dp8972
sg5832
(dp8973
ssg3974
(dp8974
sg3976
(dp8975
sg3978
(dp8976
sg3980
(dp8977
sg3982
(dp8978
sg3984
(dp8979
sg3986
(dp8980
sg3988
(dp8981
sg3990
(dp8982
sg3992
(dp8983
sg3994
(dp8984
sg3996
(dp8985
sg3998
(dp8986
sg4000
(dp8987
sg4002
(dp8988
sg4004
(dp8989
sg4006
(dp8990
sg4008
(dp8991
sg4010
(dp8992
sg4012
(dp8993
sg4014
(dp8994
sg4016
(dp8995
g752
g6744
sS'Ramora'
p8996
g8603
sS'Dogg'
p8997
g6821
sg3180
g8462
sg482
g6497
sg4690
(dp8998
sS'EdamameBean'
p8999
g6940
sg1696
g7425
sg6012
(dp9000
sg3820
g8868
sg5624
(dp9001
sS'Robro'
p9002
g6961
sS'Sho-bo'
p9003
g8746
sg5238
(dp9004
sg3080
g8404
sg3656
g8772
sS'polar'
p9005
g8289
sS'Potato Man'
p9006
g7588
sg5264
(dp9007
sg3484
g8652
sg256
g6281
sg640
g6656
sS'ArelaEstudio'
p9008
g6201
sg4924
(dp9009
sg4198
(dp9010
sS'Yntec'
p9011
(dp9012
sg5096
(dp9013
sg3030
g8368
ssg4018
(dp9014
sg4020
(dp9015
sg4022
(dp9016
sg4024
(dp9017
sg4026
(dp9018
S'Tyra004'
p9019
(dp9020
sS'The_Silent_Artist'
p9021
(dp9022
sS'EdamameBean'
p9023
g6934
ssg4028
(dp9024
sg4030
(dp9025
sg4032
(dp9026
sg4034
(dp9027
sg4036
(dp9028
sg4038
(dp9029
S'lemmonbars'
p9030
(dp9031
ssg4040
(dp9032
sg4042
(dp9033
sg4044
(dp9034
sg4046
(dp9035
sg4048
(dp9036
S'DonutOrca'
p9037
g8211
ssg4050
(dp9038
sg4052
(dp9039
sg4054
(dp9040
sg4056
(dp9041
sg4058
(dp9042
sg4060
(dp9043
sg4062
(dp9044
sg4064
(dp9045
g3660
g8776
sg6291
(dp9046
sS'jamdaddy'
p9047
g6314
sg6457
g7072
sS'ironically horny'
p9048
g7517
sg4674
(dp9049
sS'MissSezia'
p9050
g7428
sS'hasellete'
p9051
g7147
sS'Pupsicle'
p9052
g8935
sg8371
(dp9053
ssg4066
(dp9054
sg4068
(dp9055
sg4070
(dp9056
sg4072
(dp9057
sg4074
(dp9058
sg4076
(dp9059
sg4078
(dp9060
sg4080
(dp9061
sg4082
(dp9062
sg4084
(dp9063
sg4086
(dp9064
sg4088
(dp9065
sg4090
(dp9066
sg4092
(dp9067
sg4094
(dp9068
sg4096
(dp9069
sg4098
(dp9070
sg4100
(dp9071
sg4102
(dp9072
g6273
g7915
sS'RobTheWrecker'
p9073
(dp9074
sS'ripart'
p9075
g7716
sS'Brand0n3500'
p9076
(dp9077
sS'The Green Flame'
p9078
g8924
sg1486
g7257
sS'Origami Owl'
p9079
g8569
sg1272
g7122
ssg4104
(dp9080
sg4106
(dp9081
sg4108
(dp9082
sg4110
(dp9083
g1606
g7372
sg6273
g7923
sg8048
g6248
ssg4112
(dp9084
sg4114
(dp9085
sg4116
(dp9086
g1066
g6948
sS'AyeChi'
p9087
(dp9088
sS'jamdaddy'
p9089
g6292
sg6147
(dp9090
sS'rockinashy'
p9091
g9046
sg1700
g7430
sS'hasellete'
p9092
g7148
ssg4118
(dp9093
sg4120
(dp9094
S'aniesque'
p9095
g7578
sg3428
g8620
sS'Saltedice'
p9096
g6345
ssg4122
(dp9097
sg4124
(dp9098
sg4126
(dp9099
sg4128
(dp9100
sg4130
(dp9101
sg4132
(dp9102
sg4134
(dp9103
sg4136
(dp9104
g3414
g8605
sg7403
g8904
sg6304
(dp9105
sg6457
g7071
sg6294
(dp9106
sg6145
g6593
sS'mr.marvelous'
p9107
g7638
sg3644
g8756
sg6273
g7930
sg6619
(dp9108
sg7591
g7562
sS'Jack'
p9109
g6387
sS'florille'
p9110
(dp9111
sg6297
g8510
sg6643
g8375
ssg4138
(dp9112
sg4140
(dp9113
sg4142
(dp9114
sg4144
(dp9115
sg4146
(dp9116
g3414
g8598
ssg4148
(dp9117
sg4150
(dp9118
sg4152
(dp9119
sg4154
(dp9120
sg4156
(dp9121
sg4158
(dp9122
sg4160
(dp9123
sg4162
(dp9124
sg4164
(dp9125
sg4166
(dp9126
sg4168
(dp9127
sg4170
(dp9128
sg4172
(dp9129
sg4174
(dp9130
sg4176
(dp9131
sg4178
(dp9132
sg4180
(dp9133
S'lemmonbars'
p9134
(dp9135
sS'YeetYoinkPotato'
p9136
(dp9137
sg6273
g7943
sS'bajira'
p9138
g6704
ssg4182
(dp9139
sg4184
(dp9140
sg4186
(dp9141
sg4188
(dp9142
sg4190
(dp9143
sg4192
(dp9144
sg4194
(dp9145
sg4196
(dp9146
sg4198
(dp9147
g4016
g9010
sS'jamdaddy'
p9148
g6328
ssg4200
(dp9149
sg4202
(dp9150
sg4204
(dp9151
sg4206
(dp9152
sg4208
(dp9153
sg4210
(dp9154
sg4212
(dp9155
sg4214
(dp9156
sg4216
(dp9157
sg4218
(dp9158
sg4220
(dp9159
sg4222
(dp9160
S'Meow the Fronk'
p9161
g6874
sS'Potato Man'
p9162
g7590
sS'jamdaddy'
p9163
g6283
sS'Fennec'
p9164
g8370
sS'Sho-bo'
p9165
g8747
sS'PerroLaser'
p9166
(dp9167
sS'WizardCroissant'
p9168
(dp9169
sS'Killjoy'
p9170
g8482
ssg4224
(dp9171
sg4226
(dp9172
sg4228
(dp9173
sg4230
(dp9174
S'jamdaddy'
p9175
g6293
ssg4232
(dp9176
sg4234
(dp9177
sg4236
(dp9178
sg4238
(dp9179
sg4240
(dp9180
g1600
g7365
sg5260
(dp9181
sg6457
g7066
sg2624
g8112
sg604
g6620
sg3644
g8755
sS'Juleefish '
p9182
g9108
sS'Marshdpotatoes '
p9183
g8047
ssg4242
(dp9184
sg4244
(dp9185
sg4246
(dp9186
sg4248
(dp9187
sg4250
(dp9188
sg4252
(dp9189
sg4254
(dp9190
sg4256
(dp9191
sg4258
(dp9192
sg4260
(dp9193
sg4262
(dp9194
sg4264
(dp9195
sg4266
(dp9196
sg4268
(dp9197
sg4270
(dp9198
sg4272
(dp9199
sg4274
(dp9200
sg4276
(dp9201
sg4278
(dp9202
sg4280
(dp9203
sg4282
(dp9204
sg4284
(dp9205
g3600
g8718
ssg4286
(dp9206
g1390
g7204
ssg4288
(dp9207
sg4290
(dp9208
sg4292
(dp9209
sg4294
(dp9210
sg4296
(dp9211
sg4298
(dp9212
sg4300
(dp9213
sg4302
(dp9214
sg4304
(dp9215
sg4306
(dp9216
sg4308
(dp9217
sg4310
(dp9218
g1678
g7414
ssg4312
(dp9219
sg4314
(dp9220
sg4316
(dp9221
sg4318
(dp9222
sg4320
(dp9223
S'Mojomos'
p9224
g7288
sg98
g6158
sg860
g6820
sg1140
g7008
sS'Nonexistent '
p9225
g6430
sS'vaporflare'
p9226
(dp9227
sS'EdamameBean'
p9228
g6936
sg586
g6565
sg4026
g9022
sg2284
g7869
sS'xavvypls'
p9229
g6581
sg2580
g8076
sS'Robro'
p9230
g6956
sS'Jack'
p9231
g6385
sg4374
(dp9232
sg2700
g8167
sg5052
(dp9233
sS'polar'
p9234
g8288
sg424
g6453
sg5404
(dp9235
sg5254
(dp9236
sg720
g6705
sg1194
g7040
sg3114
g8423
sg726
g6712
sg1940
g7619
sg4770
(dp9237
sg3700
g8798
sg1218
g7085
sg4816
(dp9238
ssg4322
(dp9239
sg4324
(dp9240
sg4326
(dp9241
sg4328
(dp9242
S'Deduraptor'
p9243
g7845
sg1530
g7323
sS'DewyBob12'
p9244
g7914
sS'jamdaddy'
p9245
g6278
sS'Markiegee55'
p9246
g8244
ssg4330
(dp9247
sg4332
(dp9248
sg4334
(dp9249
sg4336
(dp9250
sg4338
(dp9251
S'Plutomics'
p9252
g6456
sS'jamdaddy'
p9253
g6290
sg6145
g6588
sg3644
g8753
sg2646
g8131
sS'Sirius Solemn'
p9254
(dp9255
ssg4340
(dp9256
sg4342
(dp9257
sg4344
(dp9258
sg4346
(dp9259
sg4348
(dp9260
sg4350
(dp9261
sg4352
(dp9262
sg4354
(dp9263
sg4356
(dp9264
S'jetrocker7'
p9265
g7629
ssg4358
(dp9266
sg4360
(dp9267
sg4362
(dp9268
S'AM the shithead'
p9269
(dp9270
sg322
g6375
ssg4364
(dp9271
sg4366
(dp9272
sg4368
(dp9273
sg4370
(dp9274
sg4372
(dp9275
sg4374
(dp9276
g2562
g8063
sS'The_Silent_Artist'
p9277
g9232
sS'WizardCroissant'
p9278
(dp9279
sS'EdamameBean'
p9280
g6942
sS'jamdaddy'
p9281
g6300
ssg4376
(dp9282
sg4378
(dp9283
sg4380
(dp9284
sg4382
(dp9285
sg4384
(dp9286
sg4386
(dp9287
sg4388
(dp9288
sg4390
(dp9289
sg4392
(dp9290
sg4394
(dp9291
sg4396
(dp9292
sg4398
(dp9293
sg4400
(dp9294
sg4402
(dp9295
S'jamdaddy'
p9296
g6286
ssg4404
(dp9297
sg4406
(dp9298
sg4408
(dp9299
sg4410
(dp9300
sg4412
(dp9301
sg4414
(dp9302
sg4416
(dp9303
sg4418
(dp9304
sg4420
(dp9305
sg4422
(dp9306
sg4424
(dp9307
sg4426
(dp9308
sg4428
(dp9309
sg4430
(dp9310
sg4432
(dp9311
sg4434
(dp9312
sg4436
(dp9313
sg4438
(dp9314
sg4440
(dp9315
sg4442
(dp9316
sg4444
(dp9317
sg4446
(dp9318
sg4448
(dp9319
sg4450
(dp9320
sg4452
(dp9321
sg4454
(dp9322
sg4456
(dp9323
sg4458
(dp9324
sg4460
(dp9325
S'Tamakid'
p9326
g6537
ssg4462
(dp9327
sg4464
(dp9328
sg4466
(dp9329
sg4468
(dp9330
sg4470
(dp9331
g7515
(dp9332
sS'AyeChi'
p9333
(dp9334
ssg4472
(dp9335
sg4474
(dp9336
sg4476
(dp9337
sg4478
(dp9338
sg4480
(dp9339
sg4482
(dp9340
sg4484
(dp9341
sg4486
(dp9342
sg4488
(dp9343
sg4490
(dp9344
sg4492
(dp9345
sg4494
(dp9346
g1298
g7149
sg5394
(dp9347
sS'jamdaddy'
p9348
g6279
sg1496
g7276
ssg4496
(dp9349
sg4498
(dp9350
sg4500
(dp9351
sg4502
(dp9352
sg4504
(dp9353
sg4506
(dp9354
sg4508
(dp9355
sg4510
(dp9356
sg4512
(dp9357
sg4514
(dp9358
sg4516
(dp9359
sg4518
(dp9360
sg4520
(dp9361
sg4522
(dp9362
S'Rev'
p9363
g7370
sS'DewyBob12'
p9364
g7932
sS'cyborgmeat'
p9365
g6244
ssg4524
(dp9366
sg4526
(dp9367
sg4528
(dp9368
sg4530
(dp9369
sg4532
(dp9370
sg4534
(dp9371
sg4536
(dp9372
sg4538
(dp9373
sg4540
(dp9374
g6284
g8035
ssg4542
(dp9375
sg4544
(dp9376
sg4546
(dp9377
g6273
g7937
ssg4548
(dp9378
sg4550
(dp9379
sg4552
(dp9380
sg4554
(dp9381
sg4556
(dp9382
sg4558
(dp9383
sg4560
(dp9384
sg4562
(dp9385
sg4564
(dp9386
sg4566
(dp9387
sg4568
(dp9388
sg4570
(dp9389
sg4572
(dp9390
sg4574
(dp9391
sg4576
(dp9392
sg4578
(dp9393
sg4580
(dp9394
sg4582
(dp9395
sg4584
(dp9396
sg4586
(dp9397
sg4588
(dp9398
sg4590
(dp9399
sg4592
(dp9400
sg4594
(dp9401
sg4596
(dp9402
sg4598
(dp9403
sg4600
(dp9404
sg4602
(dp9405
sg4604
(dp9406
sg4606
(dp9407
sg4608
(dp9408
sg4610
(dp9409
sg4612
(dp9410
sg4614
(dp9411
sg4616
(dp9412
sg4618
(dp9413
sg4620
(dp9414
sg4622
(dp9415
sg4624
(dp9416
sg4626
(dp9417
sg4628
(dp9418
sg4630
(dp9419
sg4632
(dp9420
sg4634
(dp9421
sg4636
(dp9422
sg4638
(dp9423
sg4640
(dp9424
sg4642
(dp9425
sg4644
(dp9426
sg4646
(dp9427
sg4648
(dp9428
sg4650
(dp9429
sg4652
(dp9430
sg4654
(dp9431
sg4656
(dp9432
sg4658
(dp9433
sg4660
(dp9434
sg4662
(dp9435
sg4664
(dp9436
sg4666
(dp9437
sg4668
(dp9438
sg4670
(dp9439
sg4672
(dp9440
sg4674
(dp9441
S'Captain Fetus'
p9442
(dp9443
sS'Mojomos'
p9444
g7310
sg1938
g7613
sg278
g6350
sS'xavvypls'
p9445
g6606
sg5158
(dp9446
sS'aniesque'
p9447
g7577
sg3246
g8501
sg5568
(dp9448
sg3838
g8883
sg5590
(dp9449
sS'rockinashy'
p9450
g9049
sg5320
(dp9451
sg2134
g7756
sg988
g6895
ssg4676
(dp9452
sg4678
(dp9453
sg4680
(dp9454
sg4682
(dp9455
sg4684
(dp9456
sg4686
(dp9457
sg4688
(dp9458
sg4690
(dp9459
g4016
g8998
sS'LookItsMrT'
p9460
g6722
ssg4692
(dp9461
sg4694
(dp9462
sg4696
(dp9463
sg4698
(dp9464
sg4700
(dp9465
sg4702
(dp9466
sg4704
(dp9467
sg4706
(dp9468
sg4708
(dp9469
sg4710
(dp9470
sg4712
(dp9471
sg4714
(dp9472
sg4716
(dp9473
sg4718
(dp9474
sg4720
(dp9475
sg4722
(dp9476
sg4724
(dp9477
sg4726
(dp9478
sg4728
(dp9479
sg4730
(dp9480
sg4732
(dp9481
sg4734
(dp9482
sg4736
(dp9483
sg4738
(dp9484
sg4740
(dp9485
sg4742
(dp9486
sg4744
(dp9487
sg4746
(dp9488
sg4748
(dp9489
sg4750
(dp9490
sg4752
(dp9491
sg4754
(dp9492
sg4756
(dp9493
sg4758
(dp9494
sg4760
(dp9495
sg4762
(dp9496
sg4764
(dp9497
sg4766
(dp9498
sg4768
(dp9499
sg4770
(dp9500
S'The_Silent_Artist'
p9501
g9237
ssg4772
(dp9502
sg4774
(dp9503
sg4776
(dp9504
sg4778
(dp9505
sg4780
(dp9506
sg4782
(dp9507
g6145
g6616
sg6329
g7861
sg2646
g8137
sg6273
g7946
ssg4784
(dp9508
sg4786
(dp9509
sg4788
(dp9510
sg4790
(dp9511
sg4792
(dp9512
sg4794
(dp9513
sg4796
(dp9514
sg4798
(dp9515
sg4800
(dp9516
sg4802
(dp9517
sg4804
(dp9518
sg4806
(dp9519
sg4808
(dp9520
sg4810
(dp9521
sg4812
(dp9522
sg4814
(dp9523
sg4816
(dp9524
S'Tyra004'
p9525
(dp9526
sg4320
g9238
sg6432
g6945
ssg4818
(dp9527
sg4820
(dp9528
sg4822
(dp9529
sg4824
(dp9530
sg4826
(dp9531
sg4828
(dp9532
sg4830
(dp9533
sg4832
(dp9534
sg4834
(dp9535
S'HeckinHeck'
p9536
g8174
ssg4836
(dp9537
g1486
g7265
sS'The Green Flame'
p9538
g8926
sS'Duncan'
p9539
g6490
ssg4838
(dp9540
sg4840
(dp9541
sg4842
(dp9542
sg4844
(dp9543
sg4846
(dp9544
S'Beepadoobop'
p9545
g8188
ssg4848
(dp9546
sg4850
(dp9547
sg4852
(dp9548
sg4854
(dp9549
sg4856
(dp9550
sg4858
(dp9551
S'Markiegee55'
p9552
g8245
ssg4860
(dp9553
sg4862
(dp9554
sg4864
(dp9555
sg4866
(dp9556
g8371
(dp9557
ssg4868
(dp9558
sg4870
(dp9559
sg4872
(dp9560
sg4874
(dp9561
S'tiniest_punk'
p9562
g8775
sg494
g6505
ssg4876
(dp9563
sg4878
(dp9564
sg4880
(dp9565
sg4882
(dp9566
sg4884
(dp9567
sg4886
(dp9568
sg4888
(dp9569
sg4890
(dp9570
sg4892
(dp9571
sg4894
(dp9572
sg4896
(dp9573
sg4898
(dp9574
sg4900
(dp9575
sg4902
(dp9576
sg4904
(dp9577
sg4906
(dp9578
sg4908
(dp9579
sg4910
(dp9580
sg4912
(dp9581
sg4914
(dp9582
S'Lux'
p9583
g7643
sg6217
g8955
sS'RoryTheFiend'
p9584
g6220
sg2220
g7813
ssg4916
(dp9585
sg4918
(dp9586
sg4920
(dp9587
sg4922
(dp9588
sg4924
(dp9589
g6703
g9137
sg4016
g9009
ssg4926
(dp9590
sg4928
(dp9591
sg4930
(dp9592
sg4932
(dp9593
sg4934
(dp9594
S'AyeChi'
p9595
(dp9596
ssg4936
(dp9597
sg4938
(dp9598
sg4940
(dp9599
sg4942
(dp9600
sg4944
(dp9601
sg4946
(dp9602
sg4948
(dp9603
sg4950
(dp9604
sg4952
(dp9605
sg4954
(dp9606
sg4956
(dp9607
sg4958
(dp9608
sg4960
(dp9609
sg4962
(dp9610
sg4964
(dp9611
sg4966
(dp9612
sg4968
(dp9613
sg4970
(dp9614
sg4972
(dp9615
sg4974
(dp9616
sg4976
(dp9617
sg4978
(dp9618
sg4980
(dp9619
sg4982
(dp9620
sg4984
(dp9621
sg4986
(dp9622
sg4988
(dp9623
sg4990
(dp9624
sg4992
(dp9625
sg4994
(dp9626
sg4996
(dp9627
sg4998
(dp9628
S'manuel fm'
p9629
g6645
sS'TheYellowMan'
p9630
g6657
ssg5000
(dp9631
sg5002
(dp9632
sg5004
(dp9633
sg5006
(dp9634
sg5008
(dp9635
sg5010
(dp9636
sg5012
(dp9637
sg5014
(dp9638
sg5016
(dp9639
sg5018
(dp9640
sg5020
(dp9641
sg5022
(dp9642
sg5024
(dp9643
sg5026
(dp9644
sg5028
(dp9645
sg5030
(dp9646
sg5032
(dp9647
sg5034
(dp9648
sg5036
(dp9649
sg5038
(dp9650
sg5040
(dp9651
g4026
g9020
sS'YellowSheep'
p9652
g7868
sS'Just Alex'
p9653
g9526
ssg5042
(dp9654
sg5044
(dp9655
sg5046
(dp9656
sg5048
(dp9657
sg5050
(dp9658
sg5052
(dp9659
g4320
g9233
sS'DewyBob12'
p9660
g7935
sS'RWeaper'
p9661
g8312
sg3644
g8760
sg1218
g7083
sS'Zweih%C3%A4nder '
p9662
g8075
ssg5054
(dp9663
sg5056
(dp9664
sg5058
(dp9665
sg5060
(dp9666
sg5062
(dp9667
sg5064
(dp9668
sg5066
(dp9669
sg5068
(dp9670
sg5070
(dp9671
sg5072
(dp9672
sg5074
(dp9673
sg5076
(dp9674
g3644
g8762
sS'jamdaddy'
p9675
g6319
ssg5078
(dp9676
sg5080
(dp9677
sg5082
(dp9678
sg5084
(dp9679
sg5086
(dp9680
sg5088
(dp9681
sg5090
(dp9682
sg5092
(dp9683
sg5094
(dp9684
sg5096
(dp9685
g752
g6748
sg3414
g8607
sS'Potato Man'
p9686
g7593
sS'jamdaddy'
p9687
g6331
sg240
g6262
sg1070
g6966
sg4016
g9013
sg4222
g9167
sg5396
(dp9688
sg2038
g7683
sS'manuel fm'
p9689
g6641
sg6316
g8655
ssg5098
(dp9690
sg5100
(dp9691
sg5102
(dp9692
sg5104
(dp9693
sg5106
(dp9694
sg5108
(dp9695
g1854
g7530
ssg5110
(dp9696
sg5112
(dp9697
sg5114
(dp9698
sg5116
(dp9699
sg5118
(dp9700
sg5120
(dp9701
sg5122
(dp9702
sg5124
(dp9703
sg5126
(dp9704
S'Mojomos'
p9705
g7297
ssg5128
(dp9706
sg5130
(dp9707
sg5132
(dp9708
sg5134
(dp9709
sg5136
(dp9710
sg5138
(dp9711
sg5140
(dp9712
sg5142
(dp9713
sg5144
(dp9714
sg5146
(dp9715
sg5148
(dp9716
sg5150
(dp9717
sg5152
(dp9718
sg5154
(dp9719
sg5156
(dp9720
sg5158
(dp9721
g4674
g9446
sg7506
g7611
sg2198
g7797
sg3820
g8865
ssg5160
(dp9722
sg5162
(dp9723
sg5164
(dp9724
sg5166
(dp9725
sg5168
(dp9726
sg5170
(dp9727
sg5172
(dp9728
sg5174
(dp9729
sg5176
(dp9730
sg5178
(dp9731
sg5180
(dp9732
sg5182
(dp9733
sg5184
(dp9734
sg5186
(dp9735
sg5188
(dp9736
sg5190
(dp9737
sg5192
(dp9738
sg5194
(dp9739
sg5196
(dp9740
g1070
g6963
sg4320
g9227
sg1512
g7290
sg5264
(dp9741
ssg5198
(dp9742
sg5200
(dp9743
sg5202
(dp9744
sg5204
(dp9745
sg5206
(dp9746
sg5208
(dp9747
sg5210
(dp9748
sg5212
(dp9749
sg5214
(dp9750
g5290
(dp9751
ssg5216
(dp9752
sg5218
(dp9753
sg5220
(dp9754
sg5222
(dp9755
S'HeckinHeck'
p9756
g8175
ssg5224
(dp9757
sg5226
(dp9758
sg5228
(dp9759
sg5230
(dp9760
sg5232
(dp9761
sg5234
(dp9762
g2624
g8115
sS'Juleefish '
p9763
g9111
sg9652
g7873
ssg5236
(dp9764
sg5238
(dp9765
g6457
g7063
sg6145
g6586
sg4016
g9004
sg1070
g6960
sg3644
g8752
sg4866
g9557
sS'rockinashy'
p9766
g9053
sS'Fennec'
p9767
g8372
sg6316
g8657
ssg5240
(dp9768
sg5242
(dp9769
sg5244
(dp9770
sg5246
(dp9771
sg5248
(dp9772
sg5250
(dp9773
sg5252
(dp9774
sg5254
(dp9775
g1512
g7304
sg4116
g9090
sg1070
g6958
sg6703
g9135
sg4320
g9236
sg1234
g7095
sg1622
g7383
sg4038
g9031
sg506
g6514
sS'Literally a ship'
p9776
g6148
sS'Fennec'
p9777
g8367
sg7101
g8169
ssg5256
(dp9778
sg5258
(dp9779
sg5260
(dp9780
g222
g6245
sS'Masterboog'
p9781
g9181
sS'DewyBob12'
p9782
g7924
sS'y3liak'
p9783
g7058
ssg5262
(dp9784
S'BigShoeStudio'
p9785
g6848
ssg5264
(dp9786
g752
g6741
sg2894
g8293
sg754
g6753
sg390
g6431
sg5760
(dp9787
sg600
g6607
sg166
g6202
sg2948
g8325
sS'joshyouart'
p9788
g9007
sg1912
g7594
sg5196
g9741
sg4222
g9169
sg2528
g8041
sg1588
g7357
sg4374
g9279
sg634
g6642
sg332
g6390
sg1062
g6943
ssg5266
(dp9789
sg5268
(dp9790
sg5270
(dp9791
sg5272
(dp9792
sg5274
(dp9793
sg5276
(dp9794
sg5278
(dp9795
sg5280
(dp9796
sg5282
(dp9797
sg5284
(dp9798
sg5286
(dp9799
sg5288
(dp9800
sg5290
(dp9801
g2194
g7792
sS'Bruj'
p9802
g9751
ssg5292
(dp9803
sg5294
(dp9804
g3644
g8743
ssg5296
(dp9805
sg5298
(dp9806
sg5300
(dp9807
sg5302
(dp9808
sg5304
(dp9809
sg5306
(dp9810
sg5308
(dp9811
S'HiveMind'
p9812
g8038
ssg5310
(dp9813
sg5312
(dp9814
sg5314
(dp9815
sg5316
(dp9816
sg5318
(dp9817
sg5320
(dp9818
S'Captain Fetus'
p9819
(dp9820
sS'ironically horny'
p9821
g7519
sg4674
g9451
sg3820
g8872
ssg5322
(dp9822
sg5324
(dp9823
sg5326
(dp9824
sg5328
(dp9825
sg5330
(dp9826
sg5332
(dp9827
sg5334
(dp9828
sg5336
(dp9829
sg5338
(dp9830
sg5340
(dp9831
sg5342
(dp9832
sg5344
(dp9833
sg5346
(dp9834
sg5348
(dp9835
sg5350
(dp9836
sg5352
(dp9837
sg5354
(dp9838
g8422
g8290
ssg5356
(dp9839
sg5358
(dp9840
S'xavvypls'
p9841
g6615
sS'Deduraptor'
p9842
g7852
sS'DewyBob12'
p9843
g7940
sS'Sirius Solemn'
p9844
(dp9845
ssg5360
(dp9846
sg5362
(dp9847
sg5364
(dp9848
sg5366
(dp9849
sg5368
(dp9850
sg5370
(dp9851
g1486
g7254
sS'Origami Owl'
p9852
g8568
sg1272
g7120
sS'The Green Flame'
p9853
g8923
sg6684
g6486
ssg5372
(dp9854
sg5374
(dp9855
sg5376
(dp9856
sg5378
(dp9857
sg5380
(dp9858
sg5382
(dp9859
g6325
(dp9860
ssg5384
(dp9861
sg5386
(dp9862
sg5388
(dp9863
sg5390
(dp9864
sg5392
(dp9865
sg5394
(dp9866
S'AyeChi'
p9867
(dp9868
sS'jamdaddy'
p9869
g6326
sg4494
g9347
sg5382
g9860
sg3284
g8526
sS'Roodles_Doodles'
p9870
(dp9871
sg5616
(dp9872
sS'hasellete'
p9873
g7150
sg3972
g8972
ssg5396
(dp9874
S'PerroLaser'
p9875
g9688
ssg5398
(dp9876
sg5400
(dp9877
sg5402
(dp9878
sg5404
(dp9879
g4320
g9235
sS'oxyd'
p9880
g8425
sg6159
g7005
sg6713
g7621
ssg5406
(dp9881
sg5408
(dp9882
sg5410
(dp9883
sg5412
(dp9884
sg5414
(dp9885
sg5416
(dp9886
sg5418
(dp9887
sg5420
(dp9888
sg5422
(dp9889
sg5424
(dp9890
sg5426
(dp9891
sg5428
(dp9892
sg5430
(dp9893
sg5432
(dp9894
sg5434
(dp9895
sg5436
(dp9896
sg5438
(dp9897
sg5440
(dp9898
sg5442
(dp9899
sg5444
(dp9900
sg5446
(dp9901
sg5448
(dp9902
sg5450
(dp9903
sg5452
(dp9904
sg5454
(dp9905
sg5456
(dp9906
sg5458
(dp9907
sg5460
(dp9908
sg5462
(dp9909
sg5464
(dp9910
sg5466
(dp9911
sg5468
(dp9912
sg5470
(dp9913
sg5472
(dp9914
sg5474
(dp9915
sg5476
(dp9916
sg5478
(dp9917
sg5480
(dp9918
sg5482
(dp9919
sg5484
(dp9920
sg5486
(dp9921
sg5488
(dp9922
sg5490
(dp9923
sg5492
(dp9924
sg5494
(dp9925
sg5496
(dp9926
sg5498
(dp9927
sg5500
(dp9928
sg5502
(dp9929
sg5504
(dp9930
sg5506
(dp9931
sg5508
(dp9932
sg5510
(dp9933
sg5512
(dp9934
sg5514
(dp9935
sg5516
(dp9936
sg5518
(dp9937
g2184
g7783
ssg5520
(dp9938
sg5522
(dp9939
sg5524
(dp9940
sg5526
(dp9941
sg5528
(dp9942
sg5530
(dp9943
sg5532
(dp9944
sg5534
(dp9945
sg5536
(dp9946
sg5538
(dp9947
sg5540
(dp9948
sg5542
(dp9949
sg5544
(dp9950
sg5546
(dp9951
sg5548
(dp9952
sg5550
(dp9953
sg5552
(dp9954
sg5554
(dp9955
g2830
g8252
sg6702
g6653
sg7715
g9077
sg6273
g7938
sg8570
(dp9956
sg8572
g7723
sg1486
g7267
sg1272
g7124
sg6329
g7855
ssg5556
(dp9957
sg5558
(dp9958
sg5560
(dp9959
sg5562
(dp9960
sg5564
(dp9961
sg5566
(dp9962
sg5568
(dp9963
g7591
g7567
sg6289
g9255
sg5358
g9845
sg9326
g6539
sg4674
g9448
ssg5570
(dp9964
sg5572
(dp9965
sg5574
(dp9966
sg5576
(dp9967
sg5578
(dp9968
sg5580
(dp9969
sg5582
(dp9970
sg5584
(dp9971
sg5586
(dp9972
sg5588
(dp9973
sg5590
(dp9974
g3416
g8612
sS'Wafflo'
p9975
g9332
sS'ironically horny'
p9976
g7516
sg9326
g6534
sg4674
g9449
sg6325
g9871
sS'lukebuzzkill'
p9977
g8968
ssg5592
(dp9978
S'AyeChi'
p9979
(dp9980
ssg5594
(dp9981
sg5596
(dp9982
sg5598
(dp9983
sg5600
(dp9984
sg5602
(dp9985
sg5604
(dp9986
sg5606
(dp9987
sg5608
(dp9988
sg5610
(dp9989
sg5612
(dp9990
sg5614
(dp9991
sg5616
(dp9992
g6325
g9872
sS'lukebuzzkill'
p9993
g8970
ssg5618
(dp9994
sg5620
(dp9995
sg5622
(dp9996
sg5624
(dp9997
g1512
g7293
sg7506
g7609
sg6457
g7054
sg4016
g9001
sg7509
g8499
sg4674
g9443
sg9460
g6718
sg7518
g9820
sg2044
g7690
ssg5626
(dp9998
sg5628
(dp9999
g7954
g7546
ssg5630
(dp10000
sg5632
(dp10001
g2624
g8106
sS'Juleefish '
p10002
g9106
sS'jamdaddy'
p10003
g6295
ssg5634
(dp10004
sg5636
(dp10005
sg5638
(dp10006
sg5640
(dp10007
sg5642
(dp10008
sg5644
(dp10009
sg5646
(dp10010
sg5648
(dp10011
sg5650
(dp10012
sg5652
(dp10013
sg5654
(dp10014
sg5656
(dp10015
sg5658
(dp10016
sg5660
(dp10017
sg5662
(dp10018
sg5664
(dp10019
sg5666
(dp10020
sg5668
(dp10021
sg5670
(dp10022
g7715
g9074
sS'The Green Flame'
p10023
g8925
sg8572
g7720
sS'Brand0n3500'
p10024
g9956
sg6273
g7939
sg1486
g7261
sS'Origami Owl'
p10025
g8571
sg1272
g7126
ssg5672
(dp10026
sg5674
(dp10027
sg5676
(dp10028
sg5678
(dp10029
g7101
g8170
ssg5680
(dp10030
sg5682
(dp10031
sg5684
(dp10032
sg5686
(dp10033
sg5688
(dp10034
sg5690
(dp10035
sg5692
(dp10036
sg5694
(dp10037
sg5696
(dp10038
sg5698
(dp10039
sg5700
(dp10040
sg5702
(dp10041
sg5704
(dp10042
sg5706
(dp10043
sg5708
(dp10044
sg5710
(dp10045
g6284
g8037
ssg5712
(dp10046
sg5714
(dp10047
sg5716
(dp10048
sg5718
(dp10049
sg5720
(dp10050
sg5722
(dp10051
sg5724
(dp10052
sg5726
(dp10053
sg5728
(dp10054
sg5730
(dp10055
sg5732
(dp10056
sg5734
(dp10057
sg5736
(dp10058
sg5738
(dp10059
sg5740
(dp10060
sg5742
(dp10061
sg5744
(dp10062
sg5746
(dp10063
sg5748
(dp10064
sg5750
(dp10065
sg5752
(dp10066
g6329
g7857
sg2040
g7686
sg6273
g7931
sS'Markiegee55'
p10067
g8248
ssg5754
(dp10068
sg5756
(dp10069
sg5758
(dp10070
sg5760
(dp10071
S'polar'
p10072
g8287
sg3414
g8600
sg1512
g7301
sS'jamdaddy'
p10073
g6305
sg9652
g7871
sg2624
g8104
sg7538
g6819
sS'Juleefish '
p10074
g9105
sg6145
g6600
sg5264
g9787
ssg5762
(dp10075
sg5764
(dp10076
g6329
g7847
sS'jamdaddy'
p10077
g6307
ssg5766
(dp10078
sg5768
(dp10079
sg5770
(dp10080
sg5772
(dp10081
sg5774
(dp10082
sg5776
(dp10083
sg5778
(dp10084
sg5780
(dp10085
sg5782
(dp10086
sg5784
(dp10087
sg5786
(dp10088
sg5788
(dp10089
sg5790
(dp10090
sg5792
(dp10091
sg5794
(dp10092
sg5796
(dp10093
sg5798
(dp10094
g752
g6746
sg4016
g9012
sS'Potato Man'
p10095
g7592
ssg5800
(dp10096
sg5802
(dp10097
sg5804
(dp10098
sg5806
(dp10099
sg5808
(dp10100
sg5810
(dp10101
sg5812
(dp10102
sg5814
(dp10103
sg5816
(dp10104
sg5818
(dp10105
sg5820
(dp10106
sg5822
(dp10107
g6694
g7165
ssg5824
(dp10108
sg5826
(dp10109
sg5828
(dp10110
sg5830
(dp10111
sg5832
(dp10112
S'lukebuzzkill'
p10113
g8973
ssg5834
(dp10114
g1316
g7166
sg1878
g7547
sg2402
g7970
sg6020
(dp10115
ssg5836
(dp10116
sg5838
(dp10117
sg5840
(dp10118
sg5842
(dp10119
sg5844
(dp10120
sg5846
(dp10121
sg5848
(dp10122
sg5850
(dp10123
sg5852
(dp10124
sg5854
(dp10125
sg5856
(dp10126
sg5858
(dp10127
sg5860
(dp10128
sg5862
(dp10129
sg5864
(dp10130
sg5866
(dp10131
sg5868
(dp10132
sg5870
(dp10133
sg5872
(dp10134
sg5874
(dp10135
sg5876
(dp10136
sg5878
(dp10137
sg5880
(dp10138
sg5882
(dp10139
sg5884
(dp10140
sg5886
(dp10141
sg5888
(dp10142
sg5890
(dp10143
sg5892
(dp10144
sg5894
(dp10145
sg5896
(dp10146
sg5898
(dp10147
g154
g6194
sg30
g6111
ssg5900
(dp10148
sg5902
(dp10149
sg5904
(dp10150
sg5906
(dp10151
S'SorbetSosara'
p10152
g8693
ssg5908
(dp10153
g34
g6115
sg854
g6809
ssg5910
(dp10154
sg5912
(dp10155
sg5914
(dp10156
sg5916
(dp10157
sg5918
(dp10158
sg5920
(dp10159
sg5922
(dp10160
sg5924
(dp10161
sg5926
(dp10162
sg5928
(dp10163
sg5930
(dp10164
sg5932
(dp10165
sg5934
(dp10166
sg5936
(dp10167
sg5938
(dp10168
sg5940
(dp10169
sg5942
(dp10170
S'ironically horny'
p10171
g7514
sS'Chunky Squelch'
p10172
g6894
ssg5944
(dp10173
sg5946
(dp10174
g4362
g9270
sg6457
g7055
ssg5948
(dp10175
sg5950
(dp10176
sg5952
(dp10177
sg5954
(dp10178
sg5956
(dp10179
sg5958
(dp10180
sg5960
(dp10181
sg5962
(dp10182
sg5964
(dp10183
sg5966
(dp10184
sg5968
(dp10185
sg5970
(dp10186
sg5972
(dp10187
sg5974
(dp10188
sg5976
(dp10189
sg5978
(dp10190
sg5980
(dp10191
sg5982
(dp10192
sg5984
(dp10193
sg5986
(dp10194
sg5988
(dp10195
sg5990
(dp10196
sg5992
(dp10197
sg5994
(dp10198
sg5996
(dp10199
sg5998
(dp10200
sg6000
(dp10201
sg6002
(dp10202
sg6004
(dp10203
sg6006
(dp10204
sg6008
(dp10205
sg6010
(dp10206
sg6012
(dp10207
g4016
g9000
sg3644
g8749
ssg6014
(dp10208
sg6016
(dp10209
sg6018
(dp10210
S'jamdaddy'
p10211
g6288
ssg6020
(dp10212
g5834
g10115
sg30
g6109
ssg6022
(dp10213
sg6024
(dp10214
sg6026
(dp10215
sg6028
(dp10216
sg6030
(dp10217
sg6032
(dp10218
sg6034
(dp10219
sg6036
(dp10220
g3416
g8613
ssg6038
(dp10221
sg6040
(dp10222
sg6042
(dp10223
sg6044
(dp10224
sg6046
(dp10225
sg6048
(dp10226
sg6050
(dp10227
sg6052
(dp10228
sg6054
(dp10229
sg6056
(dp10230
sg6058
(dp10231
g154
g6192
sS'tiniest_punk'
p10232
g8777
sg6320
g6951
sg4470
g9334
sS'jamdaddy'
p10233
g6303
sS'nicoleham'
p10234
g7277
sg7099
g7730
sg4934
g9596
sg6325
g9868
sg7152
g7432
sg58
g6133
sS'hasellete'
p10235
g7154
sg3482
g8649
sg5592
g9980
sg588
g6569
sS'lukebuzzkill'
p10236
g8971
sg6291
g9088
ssg6060
(dp10237
sg6062
(dp10238
sg6064
(dp10239
sg6066
(dp10240
sg6068
(dp10241
sg6070
(dp10242
sg6072
(dp10243
sg6074
(dp10244
S'jamdaddy'
p10245
g6299
ssg6076
(dp10246
sg6078
(dp10247
sg6080
(dp10248
sg6082
(dp10249
sg6084
(dp10250
sg6086
(dp10251
ssS'adjlist_outer_dict_factory'
p10252
g7
sb.